(dp0
S'/home/thiblahute/devel/pitivi/1.0-uninstalled/gst-editing-services/docs/ges/md/GESTitleClip.markdown'
p1
ccopy_reg
_reconstructor
p2
(chotdoc.core.dependencies
DependencyNode
p3
c__builtin__
object
p4
Ntp5
Rp6
(dp7
S'is_stale'
p8
I00
sS'mtime'
p9
F1443521271.783636
sS'_DependencyNode__parents'
p10
c__builtin__
set
p11
((lp12
tp13
Rp14
sS'_DependencyNode__children'
p15
g11
((lp16
g2
(g3
g4
Ntp17
Rp18
(dp19
g8
I00
sg9
F1435592787.8203914
sg10
g11
((lp20
g6
atp21
Rp22
sg15
g11
((lp23
tp24
Rp25
sS'filename'
p26
S'/home/thiblahute/devel/pitivi/1.0-uninstalled/gst-editing-services/ges/ges-title-clip.c'
p27
sbag2
(g3
g4
Ntp28
Rp29
(dp30
g8
I00
sg9
F1442339446.2837098
sg10
g11
((lp31
g2
(g3
g4
Ntp32
Rp33
(dp34
g8
I00
sg9
F1443521271.783636
sg10
g11
((lp35
tp36
Rp37
sg15
g11
((lp38
g2
(g3
g4
Ntp39
Rp40
(dp41
g8
I00
sg9
F1435592787.8203914
sg10
g11
((lp42
g33
atp43
Rp44
sg15
g11
((lp45
tp46
Rp47
sg26
S'/home/thiblahute/devel/pitivi/1.0-uninstalled/gst-editing-services/ges/ges-video-source.h'
p48
sbag29
atp49
Rp50
sg26
S'/home/thiblahute/devel/pitivi/1.0-uninstalled/gst-editing-services/docs/ges/md/GESVideoSource.markdown'
p51
sbag2
(g3
g4
Ntp52
Rp53
(dp54
g8
I00
sg9
F1443521271.783636
sg10
g11
((lp55
tp56
Rp57
sg15
g11
((lp58
g2
(g3
g4
Ntp59
Rp60
(dp61
g8
I00
sg9
F1435592787.8137248
sg10
g11
((lp62
g53
atp63
Rp64
sg15
g11
((lp65
tp66
Rp67
sg26
S'/home/thiblahute/devel/pitivi/1.0-uninstalled/gst-editing-services/ges/ges-audio-source.h'
p68
sbag29
atp69
Rp70
sg26
S'/home/thiblahute/devel/pitivi/1.0-uninstalled/gst-editing-services/docs/ges/md/GESAudioSource.markdown'
p71
sbag2
(g3
g4
Ntp72
Rp73
(dp74
g8
I00
sg9
F1443521271.783636
sg10
g11
((lp75
tp76
Rp77
sg15
g11
((lp78
g2
(g3
g4
Ntp79
Rp80
(dp81
g8
I00
sg9
F1443174033.8885329
sg10
g11
((lp82
g73
atp83
Rp84
sg15
g11
((lp85
tp86
Rp87
sg26
S'/home/thiblahute/devel/pitivi/1.0-uninstalled/gst-editing-services/ges/ges-layer.c'
p88
sbag29
ag2
(g3
g4
Ntp89
Rp90
(dp91
g8
I00
sg9
F1435592787.817058
sg10
g11
((lp92
g73
atp93
Rp94
sg15
g11
((lp95
tp96
Rp97
sg26
S'/home/thiblahute/devel/pitivi/1.0-uninstalled/gst-editing-services/ges/ges-layer.h'
p98
sbatp99
Rp100
sg26
S'/home/thiblahute/devel/pitivi/1.0-uninstalled/gst-editing-services/docs/ges/md/GESLayer.markdown'
p101
sbag2
(g3
g4
Ntp102
Rp103
(dp104
g8
I00
sg9
F1443521271.783636
sg10
g11
((lp105
tp106
Rp107
sg15
g11
((lp108
g2
(g3
g4
Ntp109
Rp110
(dp111
g8
I00
sg9
F1435592787.8137248
sg10
g11
((lp112
g103
atp113
Rp114
sg15
g11
((lp115
tp116
Rp117
sg26
S'/home/thiblahute/devel/pitivi/1.0-uninstalled/gst-editing-services/ges/ges-audio-test-source.h'
p118
sbag29
ag2
(g3
g4
Ntp119
Rp120
(dp121
g8
I00
sg9
F1435592787.8137248
sg10
g11
((lp122
g103
atp123
Rp124
sg15
g11
((lp125
tp126
Rp127
sg26
S'/home/thiblahute/devel/pitivi/1.0-uninstalled/gst-editing-services/ges/ges-audio-test-source.c'
p128
sbatp129
Rp130
sg26
S'/home/thiblahute/devel/pitivi/1.0-uninstalled/gst-editing-services/docs/ges/md/GESAudioTestSource.markdown'
p131
sbag2
(g3
g4
Ntp132
Rp133
(dp134
g8
I00
sg9
F1443521271.783636
sg10
g11
((lp135
tp136
Rp137
sg15
g11
((lp138
g2
(g3
g4
Ntp139
Rp140
(dp141
g8
I00
sg9
F1435592787.8203914
sg10
g11
((lp142
g133
atp143
Rp144
sg15
g11
((lp145
tp146
Rp147
sg26
S'/home/thiblahute/devel/pitivi/1.0-uninstalled/gst-editing-services/ges/ges-video-transition.h'
p148
sbag29
ag2
(g3
g4
Ntp149
Rp150
(dp151
g8
I00
sg9
F1443106703.1353157
sg10
g11
((lp152
g133
atp153
Rp154
sg15
g11
((lp155
tp156
Rp157
sg26
S'/home/thiblahute/devel/pitivi/1.0-uninstalled/gst-editing-services/ges/ges-video-transition.c'
p158
sbatp159
Rp160
sg26
S'/home/thiblahute/devel/pitivi/1.0-uninstalled/gst-editing-services/docs/ges/md/GESVideoTransition.markdown'
p161
sbag2
(g3
g4
Ntp162
Rp163
(dp164
g8
I00
sg9
F1443521271.783636
sg10
g11
((lp165
tp166
Rp167
sg15
g11
((lp168
g2
(g3
g4
Ntp169
Rp170
(dp171
g8
I00
sg9
F1435592787.8203914
sg10
g11
((lp172
g163
atp173
Rp174
sg15
g11
((lp175
tp176
Rp177
sg26
S'/home/thiblahute/devel/pitivi/1.0-uninstalled/gst-editing-services/ges/ges-video-test-source.c'
p178
sbag29
ag2
(g3
g4
Ntp179
Rp180
(dp181
g8
I00
sg9
F1435592787.8203914
sg10
g11
((lp182
g163
atp183
Rp184
sg15
g11
((lp185
tp186
Rp187
sg26
S'/home/thiblahute/devel/pitivi/1.0-uninstalled/gst-editing-services/ges/ges-video-test-source.h'
p188
sbatp189
Rp190
sg26
S'/home/thiblahute/devel/pitivi/1.0-uninstalled/gst-editing-services/docs/ges/md/GESVideoTestSource.markdown'
p191
sbag2
(g3
g4
Ntp192
Rp193
(dp194
g8
I00
sg9
F1443521271.783636
sg10
g11
((lp195
tp196
Rp197
sg15
g11
((lp198
g29
ag2
(g3
g4
Ntp199
Rp200
(dp201
g8
I00
sg9
F1435592787.817058
sg10
g11
((lp202
g193
atp203
Rp204
sg15
g11
((lp205
tp206
Rp207
sg26
S'/home/thiblahute/devel/pitivi/1.0-uninstalled/gst-editing-services/ges/ges-operation-clip.h'
p208
sbatp209
Rp210
sg26
S'/home/thiblahute/devel/pitivi/1.0-uninstalled/gst-editing-services/docs/ges/md/GESOperationClip.markdown'
p211
sbag2
(g3
g4
Ntp212
Rp213
(dp214
g8
I00
sg9
F1443521271.783636
sg10
g11
((lp215
tp216
Rp217
sg15
g11
((lp218
g29
ag2
(g3
g4
Ntp219
Rp220
(dp221
g8
I00
sg9
F1443549693.626695
sg10
g11
((lp222
g213
atp223
Rp224
sg15
g11
((lp225
tp226
Rp227
sg26
S'/home/thiblahute/devel/pitivi/1.0-uninstalled/gst-editing-services/ges/ges-pitivi-formatter.h'
p228
sbatp229
Rp230
sg26
S'/home/thiblahute/devel/pitivi/1.0-uninstalled/gst-editing-services/docs/ges/md/GESPitiviFormatter.markdown'
p231
sbag2
(g3
g4
Ntp232
Rp233
(dp234
g8
I00
sg9
F1443521271.783636
sg10
g11
((lp235
tp236
Rp237
sg15
g11
((lp238
g2
(g3
g4
Ntp239
Rp240
(dp241
g8
I00
sg9
F1435592787.817058
sg10
g11
((lp242
g233
atp243
Rp244
sg15
g11
((lp245
tp246
Rp247
sg26
S'/home/thiblahute/devel/pitivi/1.0-uninstalled/gst-editing-services/ges/ges-base-transition-clip.h'
p248
sbag29
atp249
Rp250
sg26
S'/home/thiblahute/devel/pitivi/1.0-uninstalled/gst-editing-services/docs/ges/md/GESBaseTransitionClip.markdown'
p251
sbag2
(g3
g4
Ntp252
Rp253
(dp254
g8
I00
sg9
F1443521271.783636
sg10
g11
((lp255
tp256
Rp257
sg15
g11
((lp258
g2
(g3
g4
Ntp259
Rp260
(dp261
g8
I00
sg9
F1442339446.2803764
sg10
g11
((lp262
g253
atp263
Rp264
sg15
g11
((lp265
tp266
Rp267
sg26
S'/home/thiblahute/devel/pitivi/1.0-uninstalled/gst-editing-services/ges/ges-timeline.h'
p268
sbag2
(g3
g4
Ntp269
Rp270
(dp271
g8
I00
sg9
F1442562891.350049
sg10
g11
((lp272
g253
atp273
Rp274
sg15
g11
((lp275
tp276
Rp277
sg26
S'/home/thiblahute/devel/pitivi/1.0-uninstalled/gst-editing-services/ges/ges-utils.c'
p278
sbag2
(g3
g4
Ntp279
Rp280
(dp281
g8
I00
sg9
F1435592787.8203914
sg10
g11
((lp282
g253
atp283
Rp284
sg15
g11
((lp285
tp286
Rp287
sg26
S'/home/thiblahute/devel/pitivi/1.0-uninstalled/gst-editing-services/ges/ges-utils.h'
p288
sbag29
ag2
(g3
g4
Ntp289
Rp290
(dp291
g8
I00
sg9
F1443174033.8885329
sg10
g11
((lp292
g253
atp293
Rp294
sg15
g11
((lp295
tp296
Rp297
sg26
S'/home/thiblahute/devel/pitivi/1.0-uninstalled/gst-editing-services/ges/ges-timeline.c'
p298
sbatp299
Rp300
sg26
S'/home/thiblahute/devel/pitivi/1.0-uninstalled/gst-editing-services/docs/ges/md/GESTimeline.markdown'
p301
sbag2
(g3
g4
Ntp302
Rp303
(dp304
g8
I00
sg9
F1443521271.783636
sg10
g11
((lp305
tp306
Rp307
sg15
g11
((lp308
g2
(g3
g4
Ntp309
Rp310
(dp311
g8
I00
sg9
F1435592787.817058
sg10
g11
((lp312
g303
atp313
Rp314
sg15
g11
((lp315
tp316
Rp317
sg26
S'/home/thiblahute/devel/pitivi/1.0-uninstalled/gst-editing-services/ges/ges-audio-uri-source.h'
p318
sbag29
atp319
Rp320
sg26
S'/home/thiblahute/devel/pitivi/1.0-uninstalled/gst-editing-services/docs/ges/md/GESAudioUriSource.markdown'
p321
sbag2
(g3
g4
Ntp322
Rp323
(dp324
g8
I00
sg9
F1443521271.783636
sg10
g11
((lp325
tp326
Rp327
sg15
g11
((lp328
g2
(g3
g4
Ntp329
Rp330
(dp331
g8
I00
sg9
F1435592787.817058
sg10
g11
((lp332
g323
atp333
Rp334
sg15
g11
((lp335
tp336
Rp337
sg26
S'/home/thiblahute/devel/pitivi/1.0-uninstalled/gst-editing-services/ges/ges-pipeline.h'
p338
sbag29
ag2
(g3
g4
Ntp339
Rp340
(dp341
g8
I00
sg9
F1443080528.1220274
sg10
g11
((lp342
g323
atp343
Rp344
sg15
g11
((lp345
tp346
Rp347
sg26
S'/home/thiblahute/devel/pitivi/1.0-uninstalled/gst-editing-services/ges/ges-pipeline.c'
p348
sbatp349
Rp350
sg26
S'/home/thiblahute/devel/pitivi/1.0-uninstalled/gst-editing-services/docs/ges/md/GESPipeline.markdown'
p351
sbag2
(g3
g4
Ntp352
Rp353
(dp354
g8
I00
sg9
F1443521271.783636
sg10
g11
((lp355
tp356
Rp357
sg15
g11
((lp358
g29
ag2
(g3
g4
Ntp359
Rp360
(dp361
g8
I00
sg9
F1435592787.8203914
sg10
g11
((lp362
g353
atp363
Rp364
sg15
g11
((lp365
tp366
Rp367
sg26
S'/home/thiblahute/devel/pitivi/1.0-uninstalled/gst-editing-services/ges/ges-video-uri-source.h'
p368
sbatp369
Rp370
sg26
S'/home/thiblahute/devel/pitivi/1.0-uninstalled/gst-editing-services/docs/ges/md/GESVideoUriSource.markdown'
p371
sbag2
(g3
g4
Ntp372
Rp373
(dp374
g8
I00
sg9
F1443521271.783636
sg10
g11
((lp375
tp376
Rp377
sg15
g11
((lp378
g2
(g3
g4
Ntp379
Rp380
(dp381
g8
I00
sg9
F1435592787.817058
sg10
g11
((lp382
g373
atp383
Rp384
sg15
g11
((lp385
tp386
Rp387
sg26
S'/home/thiblahute/devel/pitivi/1.0-uninstalled/gst-editing-services/ges/ges-extractable.h'
p388
sbag29
ag2
(g3
g4
Ntp389
Rp390
(dp391
g8
I00
sg9
F1435592787.817058
sg10
g11
((lp392
g373
atp393
Rp394
sg15
g11
((lp395
tp396
Rp397
sg26
S'/home/thiblahute/devel/pitivi/1.0-uninstalled/gst-editing-services/ges/ges-extractable.c'
p398
sbatp399
Rp400
sg26
S'/home/thiblahute/devel/pitivi/1.0-uninstalled/gst-editing-services/docs/ges/md/GESExtractableInterface.markdown'
p401
sbag2
(g3
g4
Ntp402
Rp403
(dp404
g8
I00
sg9
F1443521271.783636
sg10
g11
((lp405
tp406
Rp407
sg15
g11
((lp408
g29
ag2
(g3
g4
Ntp409
Rp410
(dp411
g8
I00
sg9
F1443112006.0386398
sg10
g11
((lp412
g403
ag2
(g3
g4
Ntp413
Rp414
(dp415
g8
I00
sg9
F1443521271.783636
sg10
g11
((lp416
tp417
Rp418
sg15
g11
((lp419
g2
(g3
g4
Ntp420
Rp421
(dp422
g8
I00
sg9
F1435592787.8203914
sg10
g11
((lp423
g414
atp424
Rp425
sg15
g11
((lp426
tp427
Rp428
sg26
S'/home/thiblahute/devel/pitivi/1.0-uninstalled/gst-editing-services/ges/ges-track-element-asset.h'
p429
sbag410
ag2
(g3
g4
Ntp430
Rp431
(dp432
g8
I00
sg9
F1442339446.2837098
sg10
g11
((lp433
g403
ag414
atp434
Rp435
sg15
g11
((lp436
tp437
Rp438
sg26
S'/home/thiblahute/devel/pitivi/1.0-uninstalled/gst-editing-services/ges/ges-track-element.h'
p439
sbag2
(g3
g4
Ntp440
Rp441
(dp442
g8
I00
sg9
F1435592787.8203914
sg10
g11
((lp443
g414
atp444
Rp445
sg15
g11
((lp446
tp447
Rp448
sg26
S'/home/thiblahute/devel/pitivi/1.0-uninstalled/gst-editing-services/ges/ges-track-element-asset.c'
p449
sbatp450
Rp451
sg26
S'/home/thiblahute/devel/pitivi/1.0-uninstalled/gst-editing-services/docs/ges/md/GESTrackElementAsset.markdown'
p452
sbatp453
Rp454
sg15
g11
((lp455
tp456
Rp457
sg26
S'/home/thiblahute/devel/pitivi/1.0-uninstalled/gst-editing-services/ges/ges-track-element.c'
p458
sbag431
atp459
Rp460
sg26
S'/home/thiblahute/devel/pitivi/1.0-uninstalled/gst-editing-services/docs/ges/md/GESTrackElement.markdown'
p461
sbag2
(g3
g4
Ntp462
Rp463
(dp464
g8
I00
sg9
F1443521271.783636
sg10
g11
((lp465
tp466
Rp467
sg15
g11
((lp468
g2
(g3
g4
Ntp469
Rp470
(dp471
g8
I00
sg9
F1443096200.7853336
sg10
g11
((lp472
g463
atp473
Rp474
sg15
g11
((lp475
tp476
Rp477
sg26
S'/home/thiblahute/devel/pitivi/1.0-uninstalled/gst-editing-services/ges/ges-container.c'
p478
sbag29
ag2
(g3
g4
Ntp479
Rp480
(dp481
g8
I00
sg9
F1435592787.817058
sg10
g11
((lp482
g463
atp483
Rp484
sg15
g11
((lp485
tp486
Rp487
sg26
S'/home/thiblahute/devel/pitivi/1.0-uninstalled/gst-editing-services/ges/ges-container.h'
p488
sbatp489
Rp490
sg26
S'/home/thiblahute/devel/pitivi/1.0-uninstalled/gst-editing-services/docs/ges/md/GESContainer.markdown'
p491
sbag2
(g3
g4
Ntp492
Rp493
(dp494
g8
I00
sg9
F1443521271.783636
sg10
g11
((lp495
tp496
Rp497
sg15
g11
((lp498
g29
ag2
(g3
g4
Ntp499
Rp500
(dp501
g8
I00
sg9
F1435592787.817058
sg10
g11
((lp502
g493
atp503
Rp504
sg15
g11
((lp505
tp506
Rp507
sg26
S'/home/thiblahute/devel/pitivi/1.0-uninstalled/gst-editing-services/ges/ges-audio-transition.h'
p508
sbag2
(g3
g4
Ntp509
Rp510
(dp511
g8
I00
sg9
F1435592787.817058
sg10
g11
((lp512
g493
atp513
Rp514
sg15
g11
((lp515
tp516
Rp517
sg26
S'/home/thiblahute/devel/pitivi/1.0-uninstalled/gst-editing-services/ges/ges-audio-transition.c'
p518
sbatp519
Rp520
sg26
S'/home/thiblahute/devel/pitivi/1.0-uninstalled/gst-editing-services/docs/ges/md/GESAudioTransition.markdown'
p521
sbag2
(g3
g4
Ntp522
Rp523
(dp524
g8
I00
sg9
F1443521271.783636
sg10
g11
((lp525
tp526
Rp527
sg15
g11
((lp528
g29
ag2
(g3
g4
Ntp529
Rp530
(dp531
g8
I00
sg9
F1435592787.8203914
sg10
g11
((lp532
g523
atp533
Rp534
sg15
g11
((lp535
tp536
Rp537
sg26
S'/home/thiblahute/devel/pitivi/1.0-uninstalled/gst-editing-services/ges/ges-text-overlay.h'
p538
sbag2
(g3
g4
Ntp539
Rp540
(dp541
g8
I00
sg9
F1435592787.8203914
sg10
g11
((lp542
g523
atp543
Rp544
sg15
g11
((lp545
tp546
Rp547
sg26
S'/home/thiblahute/devel/pitivi/1.0-uninstalled/gst-editing-services/ges/ges-text-overlay.c'
p548
sbatp549
Rp550
sg26
S'/home/thiblahute/devel/pitivi/1.0-uninstalled/gst-editing-services/docs/ges/md/GESTextOverlay.markdown'
p551
sbag2
(g3
g4
Ntp552
Rp553
(dp554
g8
I00
sg9
F1443521271.783636
sg10
g11
((lp555
tp556
Rp557
sg15
g11
((lp558
g2
(g3
g4
Ntp559
Rp560
(dp561
g8
I00
sg9
F1435592787.817058
sg10
g11
((lp562
g553
atp563
Rp564
sg15
g11
((lp565
tp566
Rp567
sg26
S'/home/thiblahute/devel/pitivi/1.0-uninstalled/gst-editing-services/ges/ges-image-source.h'
p568
sbag29
atp569
Rp570
sg26
S'/home/thiblahute/devel/pitivi/1.0-uninstalled/gst-editing-services/docs/ges/md/GESImageSource.markdown'
p571
sbag2
(g3
g4
Ntp572
Rp573
(dp574
g8
I00
sg9
F1443521271.783636
sg10
g11
((lp575
tp576
Rp577
sg15
g11
((lp578
g29
ag2
(g3
g4
Ntp579
Rp580
(dp581
g8
I00
sg9
F1435592787.8203914
sg10
g11
((lp582
g573
atp583
Rp584
sg15
g11
((lp585
tp586
Rp587
sg26
S'/home/thiblahute/devel/pitivi/1.0-uninstalled/gst-editing-services/ges/ges-source-clip.h'
p588
sbatp589
Rp590
sg26
S'/home/thiblahute/devel/pitivi/1.0-uninstalled/gst-editing-services/docs/ges/md/GESSourceClip.markdown'
p591
sbag2
(g3
g4
Ntp592
Rp593
(dp594
g8
I00
sg9
F1443521271.783636
sg10
g11
((lp595
tp596
Rp597
sg15
g11
((lp598
g29
ag2
(g3
g4
Ntp599
Rp600
(dp601
g8
I00
sg9
F1435592787.817058
sg10
g11
((lp602
g593
atp603
Rp604
sg15
g11
((lp605
tp606
Rp607
sg26
S'/home/thiblahute/devel/pitivi/1.0-uninstalled/gst-editing-services/ges/ges-overlay-clip.h'
p608
sbatp609
Rp610
sg26
S'/home/thiblahute/devel/pitivi/1.0-uninstalled/gst-editing-services/docs/ges/md/GESOverlayClip.markdown'
p611
sbag2
(g3
g4
Ntp612
Rp613
(dp614
g8
I00
sg9
F1443521271.783636
sg10
g11
((lp615
tp616
Rp617
sg15
g11
((lp618
g29
ag2
(g3
g4
Ntp619
Rp620
(dp621
g8
I00
sg9
F1435592787.817058
sg10
g11
((lp622
g613
atp623
Rp624
sg15
g11
((lp625
tp626
Rp627
sg26
S'/home/thiblahute/devel/pitivi/1.0-uninstalled/gst-editing-services/ges/ges-operation.h'
p628
sbatp629
Rp630
sg26
S'/home/thiblahute/devel/pitivi/1.0-uninstalled/gst-editing-services/docs/ges/md/GESOperation.markdown'
p631
sbag2
(g3
g4
Ntp632
Rp633
(dp634
g8
I00
sg9
F1443521271.783636
sg10
g11
((lp635
tp636
Rp637
sg15
g11
((lp638
g2
(g3
g4
Ntp639
Rp640
(dp641
g8
I00
sg9
F1435592787.8203914
sg10
g11
((lp642
g633
atp643
Rp644
sg15
g11
((lp645
tp646
Rp647
sg26
S'/home/thiblahute/devel/pitivi/1.0-uninstalled/gst-editing-services/ges/ges-source.h'
p648
sbag29
atp649
Rp650
sg26
S'/home/thiblahute/devel/pitivi/1.0-uninstalled/gst-editing-services/docs/ges/md/GESSource.markdown'
p651
sbag2
(g3
g4
Ntp652
Rp653
(dp654
g8
I00
sg9
F1443521271.783636
sg10
g11
((lp655
tp656
Rp657
sg15
g11
((lp658
g2
(g3
g4
Ntp659
Rp660
(dp661
g8
I00
sg9
F1435592787.817058
sg10
g11
((lp662
g653
atp663
Rp664
sg15
g11
((lp665
tp666
Rp667
sg26
S'/home/thiblahute/devel/pitivi/1.0-uninstalled/gst-editing-services/ges/ges-multi-file-source.h'
p668
sbag29
ag2
(g3
g4
Ntp669
Rp670
(dp671
g8
I00
sg9
F1435592787.817058
sg10
g11
((lp672
g653
atp673
Rp674
sg15
g11
((lp675
tp676
Rp677
sg26
S'/home/thiblahute/devel/pitivi/1.0-uninstalled/gst-editing-services/ges/ges-multi-file-source.c'
p678
sbatp679
Rp680
sg26
S'/home/thiblahute/devel/pitivi/1.0-uninstalled/gst-editing-services/docs/ges/md/GESMultiFileSource.markdown'
p681
sbag6
ag2
(g3
g4
Ntp682
Rp683
(dp684
g8
I00
sg9
F1443521271.783636
sg10
g11
((lp685
tp686
Rp687
sg15
g11
((lp688
g2
(g3
g4
Ntp689
Rp690
(dp691
g8
I00
sg9
F1435592787.817058
sg10
g11
((lp692
g683
atp693
Rp694
sg15
g11
((lp695
tp696
Rp697
sg26
S'/home/thiblahute/devel/pitivi/1.0-uninstalled/gst-editing-services/ges/ges-base-effect.h'
p698
sbag29
atp699
Rp700
sg26
S'/home/thiblahute/devel/pitivi/1.0-uninstalled/gst-editing-services/docs/ges/md/GESBaseEffect.markdown'
p701
sbag2
(g3
g4
Ntp702
Rp703
(dp704
g8
I00
sg9
F1443521271.783636
sg10
g11
((lp705
tp706
Rp707
sg15
g11
((lp708
g29
ag2
(g3
g4
Ntp709
Rp710
(dp711
g8
I00
sg9
F1435592787.8203914
sg10
g11
((lp712
g703
atp713
Rp714
sg15
g11
((lp715
tp716
Rp717
sg26
S'/home/thiblahute/devel/pitivi/1.0-uninstalled/gst-editing-services/ges/ges-text-overlay-clip.h'
p718
sbag2
(g3
g4
Ntp719
Rp720
(dp721
g8
I00
sg9
F1437036896.5592241
sg10
g11
((lp722
g703
atp723
Rp724
sg15
g11
((lp725
tp726
Rp727
sg26
S'/home/thiblahute/devel/pitivi/1.0-uninstalled/gst-editing-services/ges/ges-text-overlay-clip.c'
p728
sbatp729
Rp730
sg26
S'/home/thiblahute/devel/pitivi/1.0-uninstalled/gst-editing-services/docs/ges/md/GESTextOverlayClip.markdown'
p731
sbag2
(g3
g4
Ntp732
Rp733
(dp734
g8
I00
sg9
F1443521271.783636
sg10
g11
((lp735
tp736
Rp737
sg15
g11
((lp738
g2
(g3
g4
Ntp739
Rp740
(dp741
g8
I00
sg9
F1443090088.8220108
sg10
g11
((lp742
g733
atp743
Rp744
sg15
g11
((lp745
tp746
Rp747
sg26
S'/home/thiblahute/devel/pitivi/1.0-uninstalled/gst-editing-services/ges/ges-timeline-element.c'
p748
sbag29
ag2
(g3
g4
Ntp749
Rp750
(dp751
g8
I00
sg9
F1443356440.4566658
sg10
g11
((lp752
g733
atp753
Rp754
sg15
g11
((lp755
tp756
Rp757
sg26
S'/home/thiblahute/devel/pitivi/1.0-uninstalled/gst-editing-services/ges/ges-timeline-element.h'
p758
sbatp759
Rp760
sg26
S'/home/thiblahute/devel/pitivi/1.0-uninstalled/gst-editing-services/docs/ges/md/GESTimelineElement.markdown'
p761
sbag2
(g3
g4
Ntp762
Rp763
(dp764
g8
I00
sg9
F1443521271.783636
sg10
g11
((lp765
tp766
Rp767
sg15
g11
((lp768
g2
(g3
g4
Ntp769
Rp770
(dp771
g8
I00
sg9
F1435592787.8203914
sg10
g11
((lp772
g763
atp773
Rp774
sg15
g11
((lp775
tp776
Rp777
sg26
S'/home/thiblahute/devel/pitivi/1.0-uninstalled/gst-editing-services/ges/ges-transition.h'
p778
sbag29
atp779
Rp780
sg26
S'/home/thiblahute/devel/pitivi/1.0-uninstalled/gst-editing-services/docs/ges/md/GESTransition.markdown'
p781
sbag2
(g3
g4
Ntp782
Rp783
(dp784
g8
I00
sg9
F1443521271.783636
sg10
g11
((lp785
tp786
Rp787
sg15
g11
((lp788
g2
(g3
g4
Ntp789
Rp790
(dp791
g8
I00
sg9
F1442339446.2703764
sg10
g11
((lp792
g783
atp793
Rp794
sg15
g11
((lp795
tp796
Rp797
sg26
S'/home/thiblahute/devel/pitivi/1.0-uninstalled/gst-editing-services/ges/ges-formatter.c'
p798
sbag29
ag2
(g3
g4
Ntp799
Rp800
(dp801
g8
I00
sg9
F1435592787.817058
sg10
g11
((lp802
g783
atp803
Rp804
sg15
g11
((lp805
tp806
Rp807
sg26
S'/home/thiblahute/devel/pitivi/1.0-uninstalled/gst-editing-services/ges/ges-formatter.h'
p808
sbatp809
Rp810
sg26
S'/home/thiblahute/devel/pitivi/1.0-uninstalled/gst-editing-services/docs/ges/md/GESFormatter.markdown'
p811
sbag2
(g3
g4
Ntp812
Rp813
(dp814
g8
I00
sg9
F1443521271.783636
sg10
g11
((lp815
tp816
Rp817
sg15
g11
((lp818
g29
ag2
(g3
g4
Ntp819
Rp820
(dp821
g8
I00
sg9
F1435592787.817058
sg10
g11
((lp822
g813
atp823
Rp824
sg15
g11
((lp825
tp826
Rp827
sg26
S'/home/thiblahute/devel/pitivi/1.0-uninstalled/gst-editing-services/ges/ges-effect.h'
p828
sbag2
(g3
g4
Ntp829
Rp830
(dp831
g8
I00
sg9
F1435592787.817058
sg10
g11
((lp832
g813
atp833
Rp834
sg15
g11
((lp835
tp836
Rp837
sg26
S'/home/thiblahute/devel/pitivi/1.0-uninstalled/gst-editing-services/ges/ges-effect.c'
p838
sbatp839
Rp840
sg26
S'/home/thiblahute/devel/pitivi/1.0-uninstalled/gst-editing-services/docs/ges/md/GESEffect.markdown'
p841
sbag2
(g3
g4
Ntp842
Rp843
(dp844
g8
I00
sg9
F1443521271.783636
sg10
g11
((lp845
tp846
Rp847
sg15
g11
((lp848
g2
(g3
g4
Ntp849
Rp850
(dp851
g8
I00
sg9
F1442339446.2703764
sg10
g11
((lp852
g843
atp853
Rp854
sg15
g11
((lp855
tp856
Rp857
sg26
S'/home/thiblahute/devel/pitivi/1.0-uninstalled/gst-editing-services/ges/ges-clip.c'
p858
sbag2
(g3
g4
Ntp859
Rp860
(dp861
g8
I00
sg9
F1435592787.817058
sg10
g11
((lp862
g843
atp863
Rp864
sg15
g11
((lp865
tp866
Rp867
sg26
S'/home/thiblahute/devel/pitivi/1.0-uninstalled/gst-editing-services/ges/ges-clip.h'
p868
sbag29
atp869
Rp870
sg26
S'/home/thiblahute/devel/pitivi/1.0-uninstalled/gst-editing-services/docs/ges/md/GESClip.markdown'
p871
sbag2
(g3
g4
Ntp872
Rp873
(dp874
g8
I00
sg9
F1443521271.783636
sg10
g11
((lp875
tp876
Rp877
sg15
g11
((lp878
g2
(g3
g4
Ntp879
Rp880
(dp881
g8
I00
sg9
F1435592787.8203914
sg10
g11
((lp882
g873
atp883
Rp884
sg15
g11
((lp885
tp886
Rp887
sg26
S'/home/thiblahute/devel/pitivi/1.0-uninstalled/gst-editing-services/ges/ges-test-clip.c'
p888
sbag29
ag2
(g3
g4
Ntp889
Rp890
(dp891
g8
I00
sg9
F1435592787.8203914
sg10
g11
((lp892
g873
atp893
Rp894
sg15
g11
((lp895
tp896
Rp897
sg26
S'/home/thiblahute/devel/pitivi/1.0-uninstalled/gst-editing-services/ges/ges-test-clip.h'
p898
sbatp899
Rp900
sg26
S'/home/thiblahute/devel/pitivi/1.0-uninstalled/gst-editing-services/docs/ges/md/GESTestClip.markdown'
p901
sbag2
(g3
g4
Ntp902
Rp903
(dp904
g8
I00
sg9
F1443521271.783636
sg10
g11
((lp905
tp906
Rp907
sg15
g11
((lp908
g2
(g3
g4
Ntp909
Rp910
(dp911
g8
I00
sg9
F1435592787.817058
sg10
g11
((lp912
g903
atp913
Rp914
sg15
g11
((lp915
tp916
Rp917
sg26
S'/home/thiblahute/devel/pitivi/1.0-uninstalled/gst-editing-services/ges/ges-effect-clip.c'
p918
sbag29
ag2
(g3
g4
Ntp919
Rp920
(dp921
g8
I00
sg9
F1435592787.817058
sg10
g11
((lp922
g903
atp923
Rp924
sg15
g11
((lp925
tp926
Rp927
sg26
S'/home/thiblahute/devel/pitivi/1.0-uninstalled/gst-editing-services/ges/ges-effect-clip.h'
p928
sbatp929
Rp930
sg26
S'/home/thiblahute/devel/pitivi/1.0-uninstalled/gst-editing-services/docs/ges/md/GESEffectClip.markdown'
p931
sbag2
(g3
g4
Ntp932
Rp933
(dp934
g8
I00
sg9
F1443521271.783636
sg10
g11
((lp935
tp936
Rp937
sg15
g11
((lp938
g29
ag2
(g3
g4
Ntp939
Rp940
(dp941
g8
I00
sg9
F1435592787.8203914
sg10
g11
((lp942
g933
atp943
Rp944
sg15
g11
((lp945
tp946
Rp947
sg26
S'/home/thiblahute/devel/pitivi/1.0-uninstalled/gst-editing-services/ges/ges-title-source.h'
p948
sbag2
(g3
g4
Ntp949
Rp950
(dp951
g8
I00
sg9
F1443448798.6449366
sg10
g11
((lp952
g933
atp953
Rp954
sg15
g11
((lp955
tp956
Rp957
sg26
S'/home/thiblahute/devel/pitivi/1.0-uninstalled/gst-editing-services/ges/ges-title-source.c'
p958
sbatp959
Rp960
sg26
S'/home/thiblahute/devel/pitivi/1.0-uninstalled/gst-editing-services/docs/ges/md/GESTitleSource.markdown'
p961
sbag2
(g3
g4
Ntp962
Rp963
(dp964
g8
I00
sg9
F1443521271.783636
sg10
g11
((lp965
tp966
Rp967
sg15
g11
((lp968
g2
(g3
g4
Ntp969
Rp970
(dp971
g8
I00
sg9
F1435592787.817058
sg10
g11
((lp972
g963
atp973
Rp974
sg15
g11
((lp975
tp976
Rp977
sg26
S'/home/thiblahute/devel/pitivi/1.0-uninstalled/gst-editing-services/ges/ges-base-effect-clip.h'
p978
sbag29
atp979
Rp980
sg26
S'/home/thiblahute/devel/pitivi/1.0-uninstalled/gst-editing-services/docs/ges/md/GESBaseEffectClip.markdown'
p981
sbag2
(g3
g4
Ntp982
Rp983
(dp984
g8
I00
sg9
F1443521271.783636
sg10
g11
((lp985
tp986
Rp987
sg15
g11
((lp988
g29
ag2
(g3
g4
Ntp989
Rp990
(dp991
g8
I00
sg9
F1435592787.8203914
sg10
g11
((lp992
g983
atp993
Rp994
sg15
g11
((lp995
tp996
Rp997
sg26
S'/home/thiblahute/devel/pitivi/1.0-uninstalled/gst-editing-services/ges/ges-transition-clip.h'
p998
sbag2
(g3
g4
Ntp999
Rp1000
(dp1001
g8
I00
sg9
F1435592787.8203914
sg10
g11
((lp1002
g983
atp1003
Rp1004
sg15
g11
((lp1005
tp1006
Rp1007
sg26
S'/home/thiblahute/devel/pitivi/1.0-uninstalled/gst-editing-services/ges/ges-transition-clip.c'
p1008
sbatp1009
Rp1010
sg26
S'/home/thiblahute/devel/pitivi/1.0-uninstalled/gst-editing-services/docs/ges/md/GESTransitionClip.markdown'
p1011
sbag2
(g3
g4
Ntp1012
Rp1013
(dp1014
g8
I00
sg9
F1443521271.783636
sg10
g11
((lp1015
tp1016
Rp1017
sg15
g11
((lp1018
g2
(g3
g4
Ntp1019
Rp1020
(dp1021
g8
I00
sg9
F1443174033.8885329
sg10
g11
((lp1022
g1013
atp1023
Rp1024
sg15
g11
((lp1025
tp1026
Rp1027
sg26
S'/home/thiblahute/devel/pitivi/1.0-uninstalled/gst-editing-services/ges/ges-track.c'
p1028
sbag2
(g3
g4
Ntp1029
Rp1030
(dp1031
g8
I00
sg9
F1435592787.8203914
sg10
g11
((lp1032
g1013
atp1033
Rp1034
sg15
g11
((lp1035
tp1036
Rp1037
sg26
S'/home/thiblahute/devel/pitivi/1.0-uninstalled/gst-editing-services/ges/ges-track.h'
p1038
sbag29
ag2
(g3
g4
Ntp1039
Rp1040
(dp1041
g8
I00
sg9
F1442562877.9833817
sg10
g11
((lp1042
g1013
atp1043
Rp1044
sg15
g11
((lp1045
tp1046
Rp1047
sg26
S'/home/thiblahute/devel/pitivi/1.0-uninstalled/gst-editing-services/ges/ges-internal.h'
p1048
sbatp1049
Rp1050
sg26
S'/home/thiblahute/devel/pitivi/1.0-uninstalled/gst-editing-services/docs/ges/md/GESTrack.markdown'
p1051
sbatp1052
Rp1053
sg15
g11
((lp1054
tp1055
Rp1056
sg26
S'/home/thiblahute/devel/pitivi/1.0-uninstalled/gst-editing-services/ges/ges-types.h'
p1057
sbag2
(g3
g4
Ntp1058
Rp1059
(dp1060
g8
I00
sg9
F1435592787.8203914
sg10
g11
((lp1061
g6
atp1062
Rp1063
sg15
g11
((lp1064
tp1065
Rp1066
sg26
S'/home/thiblahute/devel/pitivi/1.0-uninstalled/gst-editing-services/ges/ges-title-clip.h'
p1067
sbatp1068
Rp1069
sg26
g1
sbsg571
g553
sg761
g733
sg51
g33
sg71
g53
sg731
g703
sS'/home/thiblahute/devel/pitivi/1.0-uninstalled/gst-editing-services/docs/ges/md/GESAsset.markdown'
p1070
g2
(g3
g4
Ntp1071
Rp1072
(dp1073
g8
I00
sg9
F1443521271.783636
sg10
g11
((lp1074
tp1075
Rp1076
sg15
g11
((lp1077
g2
(g3
g4
Ntp1078
Rp1079
(dp1080
g8
I00
sg9
F1442339446.2703764
sg10
g11
((lp1081
g1072
atp1082
Rp1083
sg15
g11
((lp1084
tp1085
Rp1086
sg26
S'/home/thiblahute/devel/pitivi/1.0-uninstalled/gst-editing-services/ges/ges-asset.c'
p1087
sbag2
(g3
g4
Ntp1088
Rp1089
(dp1090
g8
I00
sg9
F1435592787.8137248
sg10
g11
((lp1091
g1072
atp1092
Rp1093
sg15
g11
((lp1094
tp1095
Rp1096
sg26
S'/home/thiblahute/devel/pitivi/1.0-uninstalled/gst-editing-services/ges/ges-asset.h'
p1097
sbatp1098
Rp1099
sg26
g1070
sbsS'/home/thiblahute/devel/pitivi/1.0-uninstalled/gst-editing-services/docs/ges/md/index.markdown'
p1100
g2
(g3
g4
Ntp1101
Rp1102
(dp1103
g8
I00
sg9
F1443561852.1871142
sg10
g11
((lp1104
tp1105
Rp1106
sg15
g11
((lp1107
tp1108
Rp1109
sg26
g1100
sbsg961
g933
sS'/home/thiblahute/devel/pitivi/1.0-uninstalled/gst-editing-services/docs/ges/md/GES_Enums.markdown'
p1110
g2
(g3
g4
Ntp1111
Rp1112
(dp1113
g8
I00
sg9
F1443521271.783636
sg10
g11
((lp1114
tp1115
Rp1116
sg15
g11
((lp1117
g2
(g3
g4
Ntp1118
Rp1119
(dp1120
g8
I00
sg9
F1435592787.817058
sg10
g11
((lp1121
g1112
atp1122
Rp1123
sg15
g11
((lp1124
tp1125
Rp1126
sg26
S'/home/thiblahute/devel/pitivi/1.0-uninstalled/gst-editing-services/ges/ges-enums.h'
p1127
sbatp1128
Rp1129
sg26
g1110
sbsS'/home/thiblahute/devel/pitivi/1.0-uninstalled/gst-editing-services/docs/ges/md/GES_GErrors.markdown'
p1130
g2
(g3
g4
Ntp1131
Rp1132
(dp1133
g8
I00
sg9
F1443521271.783636
sg10
g11
((lp1134
tp1135
Rp1136
sg15
g11
((lp1137
g2
(g3
g4
Ntp1138
Rp1139
(dp1140
g8
I00
sg9
F1435592787.817058
sg10
g11
((lp1141
g1132
atp1142
Rp1143
sg15
g11
((lp1144
tp1145
Rp1146
sg26
S'/home/thiblahute/devel/pitivi/1.0-uninstalled/gst-editing-services/ges/ges-gerror.h'
p1147
sbatp1148
Rp1149
sg26
g1130
sbsS'/home/thiblahute/devel/pitivi/1.0-uninstalled/gst-editing-services/docs/ges/md/GESGroup.markdown'
p1150
g2
(g3
g4
Ntp1151
Rp1152
(dp1153
g8
I00
sg9
F1443521271.783636
sg10
g11
((lp1154
tp1155
Rp1156
sg15
g11
((lp1157
g2
(g3
g4
Ntp1158
Rp1159
(dp1160
g8
I00
sg9
F1442339446.2703764
sg10
g11
((lp1161
g1152
atp1162
Rp1163
sg15
g11
((lp1164
tp1165
Rp1166
sg26
S'/home/thiblahute/devel/pitivi/1.0-uninstalled/gst-editing-services/ges/ges-group.h'
p1167
sbag2
(g3
g4
Ntp1168
Rp1169
(dp1170
g8
I00
sg9
F1442339446.2703764
sg10
g11
((lp1171
g1152
atp1172
Rp1173
sg15
g11
((lp1174
tp1175
Rp1176
sg26
S'/home/thiblahute/devel/pitivi/1.0-uninstalled/gst-editing-services/ges/ges-group.c'
p1177
sbatp1178
Rp1179
sg26
g1150
sbsS'/home/thiblahute/devel/pitivi/1.0-uninstalled/gst-editing-services/docs/ges/md/GESBaseXmlFormatter.markdown'
p1180
g2
(g3
g4
Ntp1181
Rp1182
(dp1183
g8
I00
sg9
F1443521271.783636
sg10
g11
((lp1184
tp1185
Rp1186
sg15
g11
((lp1187
g2
(g3
g4
Ntp1188
Rp1189
(dp1190
g8
I00
sg9
F1435592787.817058
sg10
g11
((lp1191
g1182
atp1192
Rp1193
sg15
g11
((lp1194
tp1195
Rp1196
sg26
S'/home/thiblahute/devel/pitivi/1.0-uninstalled/gst-editing-services/ges/ges-base-xml-formatter.h'
p1197
sbatp1198
Rp1199
sg26
g1180
sbsg161
g133
sS'/home/thiblahute/devel/pitivi/1.0-uninstalled/gst-editing-services/docs/ges/md/Initialization.markdown'
p1200
g2
(g3
g4
Ntp1201
Rp1202
(dp1203
g8
I00
sg9
F1443521271.783636
sg10
g11
((lp1204
tp1205
Rp1206
sg15
g11
((lp1207
g2
(g3
g4
Ntp1208
Rp1209
(dp1210
g8
I00
sg9
F1435592787.8237247
sg10
g11
((lp1211
g1202
atp1212
Rp1213
sg15
g11
((lp1214
tp1215
Rp1216
sg26
S'/home/thiblahute/devel/pitivi/1.0-uninstalled/gst-editing-services/ges/ges.h'
p1217
sbag2
(g3
g4
Ntp1218
Rp1219
(dp1220
g8
I00
sg9
F1442339446.2837098
sg10
g11
((lp1221
g1202
atp1222
Rp1223
sg15
g11
((lp1224
tp1225
Rp1226
sg26
S'/home/thiblahute/devel/pitivi/1.0-uninstalled/gst-editing-services/ges/ges.c'
p1227
sbatp1228
Rp1229
sg26
g1200
sbsg301
g253
sg491
g463
sg131
g103
sS'/home/thiblahute/devel/pitivi/1.0-uninstalled/gst-editing-services/docs/ges/md/GESUriClip.markdown'
p1230
g2
(g3
g4
Ntp1231
Rp1232
(dp1233
g8
I00
sg9
F1443521271.783636
sg10
g11
((lp1234
tp1235
Rp1236
sg15
g11
((lp1237
g2
(g3
g4
Ntp1238
Rp1239
(dp1240
g8
I00
sg9
F1435592787.8203914
sg10
g11
((lp1241
g1232
atp1242
Rp1243
sg15
g11
((lp1244
tp1245
Rp1246
sg26
S'/home/thiblahute/devel/pitivi/1.0-uninstalled/gst-editing-services/ges/ges-uri-clip.h'
p1247
sbag2
(g3
g4
Ntp1248
Rp1249
(dp1250
g8
I00
sg9
F1435592787.8203914
sg10
g11
((lp1251
g1232
atp1252
Rp1253
sg15
g11
((lp1254
tp1255
Rp1256
sg26
S'/home/thiblahute/devel/pitivi/1.0-uninstalled/gst-editing-services/ges/ges-uri-clip.c'
p1257
sbatp1258
Rp1259
sg26
g1230
sbsg591
g573
sS'/home/thiblahute/devel/pitivi/1.0-uninstalled/gst-editing-services/docs/ges/md/GESAudioTrack.markdown'
p1260
g2
(g3
g4
Ntp1261
Rp1262
(dp1263
g8
I00
sg9
F1443521271.783636
sg10
g11
((lp1264
tp1265
Rp1266
sg15
g11
((lp1267
g2
(g3
g4
Ntp1268
Rp1269
(dp1270
g8
I00
sg9
F1435592787.8137248
sg10
g11
((lp1271
g1262
atp1272
Rp1273
sg15
g11
((lp1274
tp1275
Rp1276
sg26
S'/home/thiblahute/devel/pitivi/1.0-uninstalled/gst-editing-services/ges/ges-audio-track.c'
p1277
sbag2
(g3
g4
Ntp1278
Rp1279
(dp1280
g8
I00
sg9
F1435592787.8137248
sg10
g11
((lp1281
g1262
atp1282
Rp1283
sg15
g11
((lp1284
tp1285
Rp1286
sg26
S'/home/thiblahute/devel/pitivi/1.0-uninstalled/gst-editing-services/ges/ges-audio-track.h'
p1287
sbatp1288
Rp1289
sg26
g1260
sbsg231
g213
sg651
g633
sg351
g323
sg1051
g1013
sS'/home/thiblahute/devel/pitivi/1.0-uninstalled/gst-editing-services/docs/ges/md/GESProject.markdown'
p1290
g2
(g3
g4
Ntp1291
Rp1292
(dp1293
g8
I00
sg9
F1443521271.783636
sg10
g11
((lp1294
tp1295
Rp1296
sg15
g11
((lp1297
g2
(g3
g4
Ntp1298
Rp1299
(dp1300
g8
I00
sg9
F1442339446.2737098
sg10
g11
((lp1301
g1292
atp1302
Rp1303
sg15
g11
((lp1304
tp1305
Rp1306
sg26
S'/home/thiblahute/devel/pitivi/1.0-uninstalled/gst-editing-services/ges/ges-project.c'
p1307
sbag2
(g3
g4
Ntp1308
Rp1309
(dp1310
g8
I00
sg9
F1435592787.8203914
sg10
g11
((lp1311
g1292
atp1312
Rp1313
sg15
g11
((lp1314
tp1315
Rp1316
sg26
S'/home/thiblahute/devel/pitivi/1.0-uninstalled/gst-editing-services/ges/ges-project.h'
p1317
sbatp1318
Rp1319
sg26
g1290
sbsS'/home/thiblahute/devel/pitivi/1.0-uninstalled/gst-editing-services/docs/ges/md/GESMetaContainer.markdown'
p1320
g2
(g3
g4
Ntp1321
Rp1322
(dp1323
g8
I00
sg9
F1443521271.783636
sg10
g11
((lp1324
tp1325
Rp1326
sg15
g11
((lp1327
g2
(g3
g4
Ntp1328
Rp1329
(dp1330
g8
I00
sg9
F1442339446.2703764
sg10
g11
((lp1331
g1322
atp1332
Rp1333
sg15
g11
((lp1334
tp1335
Rp1336
sg26
S'/home/thiblahute/devel/pitivi/1.0-uninstalled/gst-editing-services/ges/ges-meta-container.h'
p1337
sbag2
(g3
g4
Ntp1338
Rp1339
(dp1340
g8
I00
sg9
F1442339446.2703764
sg10
g11
((lp1341
g1322
atp1342
Rp1343
sg15
g11
((lp1344
tp1345
Rp1346
sg26
S'/home/thiblahute/devel/pitivi/1.0-uninstalled/gst-editing-services/ges/ges-meta-container.c'
p1347
sbatp1348
Rp1349
sg26
g1320
sbsg101
g73
sS'/home/thiblahute/devel/pitivi/1.0-uninstalled/gst-editing-services/docs/ges/md/GESClipAsset.markdown'
p1350
g2
(g3
g4
Ntp1351
Rp1352
(dp1353
g8
I00
sg9
F1443521271.783636
sg10
g11
((lp1354
tp1355
Rp1356
sg15
g11
((lp1357
g2
(g3
g4
Ntp1358
Rp1359
(dp1360
g8
I00
sg9
F1435592787.817058
sg10
g11
((lp1361
g1352
atp1362
Rp1363
sg15
g11
((lp1364
tp1365
Rp1366
sg26
S'/home/thiblahute/devel/pitivi/1.0-uninstalled/gst-editing-services/ges/ges-clip-asset.h'
p1367
sbag2
(g3
g4
Ntp1368
Rp1369
(dp1370
g8
I00
sg9
F1435592787.817058
sg10
g11
((lp1371
g1352
atp1372
Rp1373
sg15
g11
((lp1374
tp1375
Rp1376
sg26
S'/home/thiblahute/devel/pitivi/1.0-uninstalled/gst-editing-services/ges/ges-clip-asset.c'
p1377
sbatp1378
Rp1379
sg26
g1350
sbsg321
g303
sg981
g963
sg1011
g983
sS'/home/thiblahute/devel/pitivi/1.0-uninstalled/gst-editing-services/docs/ges/md/GESXmlFormatter.markdown'
p1380
g2
(g3
g4
Ntp1381
Rp1382
(dp1383
g8
I00
sg9
F1443521271.783636
sg10
g11
((lp1384
tp1385
Rp1386
sg15
g11
((lp1387
tp1388
Rp1389
sg26
g1380
sbsg461
g403
sg371
g353
sg251
g233
sS'/home/thiblahute/devel/pitivi/1.0-uninstalled/gst-editing-services/docs/ges/md/GESUriSourceAsset.markdown'
p1390
g2
(g3
g4
Ntp1391
Rp1392
(dp1393
g8
I00
sg9
F1443521271.783636
sg10
g11
((lp1394
tp1395
Rp1396
sg15
g11
((lp1397
g2
(g3
g4
Ntp1398
Rp1399
(dp1400
g8
I00
sg9
F1443462000.081647
sg10
g11
((lp1401
g2
(g3
g4
Ntp1402
Rp1403
(dp1404
g8
I00
sg9
F1443521271.783636
sg10
g11
((lp1405
tp1406
Rp1407
sg15
g11
((lp1408
g1399
ag2
(g3
g4
Ntp1409
Rp1410
(dp1411
g8
I00
sg9
F1435592787.8203914
sg10
g11
((lp1412
g1403
ag1392
atp1413
Rp1414
sg15
g11
((lp1415
tp1416
Rp1417
sg26
S'/home/thiblahute/devel/pitivi/1.0-uninstalled/gst-editing-services/ges/ges-uri-asset.h'
p1418
sbatp1419
Rp1420
sg26
S'/home/thiblahute/devel/pitivi/1.0-uninstalled/gst-editing-services/docs/ges/md/GESUriClipAsset.markdown'
p1421
sbag1392
atp1422
Rp1423
sg15
g11
((lp1424
tp1425
Rp1426
sg26
S'/home/thiblahute/devel/pitivi/1.0-uninstalled/gst-editing-services/ges/ges-uri-asset.c'
p1427
sbag1410
atp1428
Rp1429
sg26
g1390
sbsg551
g523
sg841
g813
sg611
g593
sg211
g193
sS'/home/thiblahute/devel/pitivi/1.0-uninstalled/gst-editing-services/docs/ges/md/GStreamer_Editing_Services_Overview.markdown'
p1430
g2
(g3
g4
Ntp1431
Rp1432
(dp1433
g8
I00
sg9
F1443521271.783636
sg10
g11
((lp1434
tp1435
Rp1436
sg15
g11
((lp1437
tp1438
Rp1439
sg26
g1430
sbsg521
g493
sS'/home/thiblahute/devel/pitivi/1.0-uninstalled/gst-editing-services/docs/ges/md/architecture.markdown'
p1440
g2
(g3
g4
Ntp1441
Rp1442
(dp1443
g8
I00
sg9
F1443560990.493751
sg10
g11
((lp1444
tp1445
Rp1446
sg15
g11
((lp1447
tp1448
Rp1449
sg26
g1440
sbsS'/home/thiblahute/devel/pitivi/1.0-uninstalled/gst-editing-services/docs/ges/md/GESVideoTrack.markdown'
p1450
g2
(g3
g4
Ntp1451
Rp1452
(dp1453
g8
I00
sg9
F1443521271.783636
sg10
g11
((lp1454
tp1455
Rp1456
sg15
g11
((lp1457
g2
(g3
g4
Ntp1458
Rp1459
(dp1460
g8
I00
sg9
F1435592787.8203914
sg10
g11
((lp1461
g1452
atp1462
Rp1463
sg15
g11
((lp1464
tp1465
Rp1466
sg26
S'/home/thiblahute/devel/pitivi/1.0-uninstalled/gst-editing-services/ges/ges-video-track.h'
p1467
sbag2
(g3
g4
Ntp1468
Rp1469
(dp1470
g8
I00
sg9
F1441360472.1222272
sg10
g11
((lp1471
g1452
atp1472
Rp1473
sg15
g11
((lp1474
tp1475
Rp1476
sg26
S'/home/thiblahute/devel/pitivi/1.0-uninstalled/gst-editing-services/ges/ges-video-track.c'
p1477
sbatp1478
Rp1479
sg26
g1450
sbsg811
g783
sg901
g873
sg701
g683
sg931
g903
sg871
g843
sg1421
g1403
sg781
g763
sg191
g163
sg452
g414
sg681
g653
sg631
g613
sg401
g373
s.