(dp0
S'/home/thiblahute/devel/pitivi/1.0-uninstalled/gst-editing-services/docs/ges/md/GESTitleClip.markdown'
p1
ccopy_reg
_reconstructor
p2
(chotdoc.core.dependencies
DependencyNode
p3
c__builtin__
object
p4
Ntp5
Rp6
(dp7
S'is_stale'
p8
I00
sS'_DependencyNode__children'
p9
c__builtin__
set
p10
((lp11
g2
(g3
g4
Ntp12
Rp13
(dp14
g8
I00
sg9
g10
((lp15
tp16
Rp17
sS'mtime'
p18
F1435592787.8203914
sS'_DependencyNode__parents'
p19
g10
((lp20
g6
atp21
Rp22
sS'filename'
p23
S'/home/thiblahute/devel/pitivi/1.0-uninstalled/gst-editing-services/ges/ges-title-clip.h'
p24
sbag2
(g3
g4
Ntp25
Rp26
(dp27
g8
I00
sg9
g10
((lp28
tp29
Rp30
sg18
F1442339446.2837098
sg19
g10
((lp31
g2
(g3
g4
Ntp32
Rp33
(dp34
g8
I00
sg9
g10
((lp35
g2
(g3
g4
Ntp36
Rp37
(dp38
g8
I00
sg9
g10
((lp39
tp40
Rp41
sg18
F1443695443.7303631
sg19
g10
((lp42
g33
atp43
Rp44
sg23
S'/home/thiblahute/devel/pitivi/1.0-uninstalled/gst-editing-services/ges/ges-track.c'
p45
sbag2
(g3
g4
Ntp46
Rp47
(dp48
g8
I00
sg9
g10
((lp49
tp50
Rp51
sg18
F1443618814.3073583
sg19
g10
((lp52
g33
atp53
Rp54
sg23
S'/home/thiblahute/devel/pitivi/1.0-uninstalled/gst-editing-services/ges/ges-internal.h'
p55
sbag26
ag2
(g3
g4
Ntp56
Rp57
(dp58
g8
I00
sg9
g10
((lp59
tp60
Rp61
sg18
F1435592787.8203914
sg19
g10
((lp62
g33
atp63
Rp64
sg23
S'/home/thiblahute/devel/pitivi/1.0-uninstalled/gst-editing-services/ges/ges-track.h'
p65
sbatp66
Rp67
sg18
F1443695443.7236965
sg19
g10
((lp68
tp69
Rp70
sg23
S'/home/thiblahute/devel/pitivi/1.0-uninstalled/gst-editing-services/docs/ges/md/GESTrack.markdown'
p71
sbag2
(g3
g4
Ntp72
Rp73
(dp74
g8
I00
sg9
g10
((lp75
g2
(g3
g4
Ntp76
Rp77
(dp78
g8
I00
sg9
g10
((lp79
tp80
Rp81
sg18
F1443618814.3073583
sg19
g10
((lp82
g73
atp83
Rp84
sg23
S'/home/thiblahute/devel/pitivi/1.0-uninstalled/gst-editing-services/ges/ges-pipeline.c'
p85
sbag26
ag2
(g3
g4
Ntp86
Rp87
(dp88
g8
I00
sg9
g10
((lp89
tp90
Rp91
sg18
F1435592787.817058
sg19
g10
((lp92
g73
atp93
Rp94
sg23
S'/home/thiblahute/devel/pitivi/1.0-uninstalled/gst-editing-services/ges/ges-pipeline.h'
p95
sbatp96
Rp97
sg18
F1443695443.7203631
sg19
g10
((lp98
tp99
Rp100
sg23
S'/home/thiblahute/devel/pitivi/1.0-uninstalled/gst-editing-services/docs/ges/md/GESPipeline.markdown'
p101
sbag2
(g3
g4
Ntp102
Rp103
(dp104
g8
I00
sg9
g10
((lp105
g2
(g3
g4
Ntp106
Rp107
(dp108
g8
I00
sg9
g10
((lp109
tp110
Rp111
sg18
F1435592787.8203914
sg19
g10
((lp112
g103
atp113
Rp114
sg23
S'/home/thiblahute/devel/pitivi/1.0-uninstalled/gst-editing-services/ges/ges-source.h'
p115
sbag26
atp116
Rp117
sg18
F1443695443.7203631
sg19
g10
((lp118
tp119
Rp120
sg23
S'/home/thiblahute/devel/pitivi/1.0-uninstalled/gst-editing-services/docs/ges/md/GESSource.markdown'
p121
sbag2
(g3
g4
Ntp122
Rp123
(dp124
g8
I00
sg9
g10
((lp125
g26
ag2
(g3
g4
Ntp126
Rp127
(dp128
g8
I00
sg9
g10
((lp129
tp130
Rp131
sg18
F1443618814.3106916
sg19
g10
((lp132
g123
ag2
(g3
g4
Ntp133
Rp134
(dp135
g8
I00
sg9
g10
((lp136
g2
(g3
g4
Ntp137
Rp138
(dp139
g8
I00
sg9
g10
((lp140
tp141
Rp142
sg18
F1435592787.8203914
sg19
g10
((lp143
g134
atp144
Rp145
sg23
S'/home/thiblahute/devel/pitivi/1.0-uninstalled/gst-editing-services/ges/ges-track-element-asset.h'
p146
sbag2
(g3
g4
Ntp147
Rp148
(dp149
g8
I00
sg9
g10
((lp150
tp151
Rp152
sg18
F1443618814.3106916
sg19
g10
((lp153
g123
ag134
atp154
Rp155
sg23
S'/home/thiblahute/devel/pitivi/1.0-uninstalled/gst-editing-services/ges/ges-track-element.h'
p156
sbag127
ag2
(g3
g4
Ntp157
Rp158
(dp159
g8
I00
sg9
g10
((lp160
tp161
Rp162
sg18
F1435592787.8203914
sg19
g10
((lp163
g134
atp164
Rp165
sg23
S'/home/thiblahute/devel/pitivi/1.0-uninstalled/gst-editing-services/ges/ges-track-element-asset.c'
p166
sbatp167
Rp168
sg18
F1443695443.7236965
sg19
g10
((lp169
tp170
Rp171
sg23
S'/home/thiblahute/devel/pitivi/1.0-uninstalled/gst-editing-services/docs/ges/md/GESTrackElementAsset.markdown'
p172
sbatp173
Rp174
sg23
S'/home/thiblahute/devel/pitivi/1.0-uninstalled/gst-editing-services/ges/ges-track-element.c'
p175
sbag148
atp176
Rp177
sg18
F1443695443.7236965
sg19
g10
((lp178
tp179
Rp180
sg23
S'/home/thiblahute/devel/pitivi/1.0-uninstalled/gst-editing-services/docs/ges/md/GESTrackElement.markdown'
p181
sbag2
(g3
g4
Ntp182
Rp183
(dp184
g8
I00
sg9
g10
((lp185
g2
(g3
g4
Ntp186
Rp187
(dp188
g8
I00
sg9
g10
((lp189
tp190
Rp191
sg18
F1435592787.817058
sg19
g10
((lp192
g183
atp193
Rp194
sg23
S'/home/thiblahute/devel/pitivi/1.0-uninstalled/gst-editing-services/ges/ges-operation-clip.h'
p195
sbag26
atp196
Rp197
sg18
F1443695443.7203631
sg19
g10
((lp198
tp199
Rp200
sg23
S'/home/thiblahute/devel/pitivi/1.0-uninstalled/gst-editing-services/docs/ges/md/GESOperationClip.markdown'
p201
sbag2
(g3
g4
Ntp202
Rp203
(dp204
g8
I00
sg9
g10
((lp205
g2
(g3
g4
Ntp206
Rp207
(dp208
g8
I00
sg9
g10
((lp209
tp210
Rp211
sg18
F1435592787.817058
sg19
g10
((lp212
g203
atp213
Rp214
sg23
S'/home/thiblahute/devel/pitivi/1.0-uninstalled/gst-editing-services/ges/ges-formatter.h'
p215
sbag26
ag2
(g3
g4
Ntp216
Rp217
(dp218
g8
I00
sg9
g10
((lp219
tp220
Rp221
sg18
F1443618814.3073583
sg19
g10
((lp222
g203
atp223
Rp224
sg23
S'/home/thiblahute/devel/pitivi/1.0-uninstalled/gst-editing-services/ges/ges-formatter.c'
p225
sbatp226
Rp227
sg18
F1443695443.7203631
sg19
g10
((lp228
tp229
Rp230
sg23
S'/home/thiblahute/devel/pitivi/1.0-uninstalled/gst-editing-services/docs/ges/md/GESFormatter.markdown'
p231
sbag2
(g3
g4
Ntp232
Rp233
(dp234
g8
I00
sg9
g10
((lp235
g2
(g3
g4
Ntp236
Rp237
(dp238
g8
I00
sg9
g10
((lp239
tp240
Rp241
sg18
F1435592787.817058
sg19
g10
((lp242
g233
atp243
Rp244
sg23
S'/home/thiblahute/devel/pitivi/1.0-uninstalled/gst-editing-services/ges/ges-audio-uri-source.h'
p245
sbag26
atp246
Rp247
sg18
F1443695443.7170298
sg19
g10
((lp248
tp249
Rp250
sg23
S'/home/thiblahute/devel/pitivi/1.0-uninstalled/gst-editing-services/docs/ges/md/GESAudioUriSource.markdown'
p251
sbag2
(g3
g4
Ntp252
Rp253
(dp254
g8
I00
sg9
g10
((lp255
g2
(g3
g4
Ntp256
Rp257
(dp258
g8
I00
sg9
g10
((lp259
tp260
Rp261
sg18
F1435592787.817058
sg19
g10
((lp262
g253
atp263
Rp264
sg23
S'/home/thiblahute/devel/pitivi/1.0-uninstalled/gst-editing-services/ges/ges-base-transition-clip.h'
p265
sbag26
atp266
Rp267
sg18
F1443695443.7203631
sg19
g10
((lp268
tp269
Rp270
sg23
S'/home/thiblahute/devel/pitivi/1.0-uninstalled/gst-editing-services/docs/ges/md/GESBaseTransitionClip.markdown'
p271
sbag2
(g3
g4
Ntp272
Rp273
(dp274
g8
I00
sg9
g10
((lp275
g26
ag2
(g3
g4
Ntp276
Rp277
(dp278
g8
I00
sg9
g10
((lp279
tp280
Rp281
sg18
F1435592787.8203914
sg19
g10
((lp282
g273
atp283
Rp284
sg23
S'/home/thiblahute/devel/pitivi/1.0-uninstalled/gst-editing-services/ges/ges-video-source.h'
p285
sbatp286
Rp287
sg18
F1443695443.7236965
sg19
g10
((lp288
tp289
Rp290
sg23
S'/home/thiblahute/devel/pitivi/1.0-uninstalled/gst-editing-services/docs/ges/md/GESVideoSource.markdown'
p291
sbag2
(g3
g4
Ntp292
Rp293
(dp294
g8
I00
sg9
g10
((lp295
g2
(g3
g4
Ntp296
Rp297
(dp298
g8
I00
sg9
g10
((lp299
tp300
Rp301
sg18
F1435592787.8203914
sg19
g10
((lp302
g293
atp303
Rp304
sg23
S'/home/thiblahute/devel/pitivi/1.0-uninstalled/gst-editing-services/ges/ges-video-uri-source.h'
p305
sbag26
atp306
Rp307
sg18
F1443695443.7236965
sg19
g10
((lp308
tp309
Rp310
sg23
S'/home/thiblahute/devel/pitivi/1.0-uninstalled/gst-editing-services/docs/ges/md/GESVideoUriSource.markdown'
p311
sbag2
(g3
g4
Ntp312
Rp313
(dp314
g8
I00
sg9
g10
((lp315
g2
(g3
g4
Ntp316
Rp317
(dp318
g8
I00
sg9
g10
((lp319
tp320
Rp321
sg18
F1435592787.8137248
sg19
g10
((lp322
g313
atp323
Rp324
sg23
S'/home/thiblahute/devel/pitivi/1.0-uninstalled/gst-editing-services/ges/ges-audio-source.h'
p325
sbag26
atp326
Rp327
sg18
F1443695443.7170298
sg19
g10
((lp328
tp329
Rp330
sg23
S'/home/thiblahute/devel/pitivi/1.0-uninstalled/gst-editing-services/docs/ges/md/GESAudioSource.markdown'
p331
sbag2
(g3
g4
Ntp332
Rp333
(dp334
g8
I00
sg9
g10
((lp335
g2
(g3
g4
Ntp336
Rp337
(dp338
g8
I00
sg9
g10
((lp339
tp340
Rp341
sg18
F1443448798.6449366
sg19
g10
((lp342
g333
atp343
Rp344
sg23
S'/home/thiblahute/devel/pitivi/1.0-uninstalled/gst-editing-services/ges/ges-title-source.c'
p345
sbag26
ag2
(g3
g4
Ntp346
Rp347
(dp348
g8
I00
sg9
g10
((lp349
tp350
Rp351
sg18
F1435592787.8203914
sg19
g10
((lp352
g333
atp353
Rp354
sg23
S'/home/thiblahute/devel/pitivi/1.0-uninstalled/gst-editing-services/ges/ges-title-source.h'
p355
sbatp356
Rp357
sg18
F1443695443.7236965
sg19
g10
((lp358
tp359
Rp360
sg23
S'/home/thiblahute/devel/pitivi/1.0-uninstalled/gst-editing-services/docs/ges/md/GESTitleSource.markdown'
p361
sbag2
(g3
g4
Ntp362
Rp363
(dp364
g8
I00
sg9
g10
((lp365
g2
(g3
g4
Ntp366
Rp367
(dp368
g8
I00
sg9
g10
((lp369
tp370
Rp371
sg18
F1435592787.817058
sg19
g10
((lp372
g363
atp373
Rp374
sg23
S'/home/thiblahute/devel/pitivi/1.0-uninstalled/gst-editing-services/ges/ges-base-effect.h'
p375
sbag26
atp376
Rp377
sg18
F1443695443.7170298
sg19
g10
((lp378
tp379
Rp380
sg23
S'/home/thiblahute/devel/pitivi/1.0-uninstalled/gst-editing-services/docs/ges/md/GESBaseEffect.markdown'
p381
sbag2
(g3
g4
Ntp382
Rp383
(dp384
g8
I00
sg9
g10
((lp385
g2
(g3
g4
Ntp386
Rp387
(dp388
g8
I00
sg9
g10
((lp389
tp390
Rp391
sg18
F1443695443.7303631
sg19
g10
((lp392
g383
atp393
Rp394
sg23
S'/home/thiblahute/devel/pitivi/1.0-uninstalled/gst-editing-services/ges/ges-pitivi-formatter.h'
p395
sbag26
atp396
Rp397
sg18
F1443695443.7203631
sg19
g10
((lp398
tp399
Rp400
sg23
S'/home/thiblahute/devel/pitivi/1.0-uninstalled/gst-editing-services/docs/ges/md/GESPitiviFormatter.markdown'
p401
sbag2
(g3
g4
Ntp402
Rp403
(dp404
g8
I00
sg9
g10
((lp405
g2
(g3
g4
Ntp406
Rp407
(dp408
g8
I00
sg9
g10
((lp409
tp410
Rp411
sg18
F1435592787.8137248
sg19
g10
((lp412
g403
atp413
Rp414
sg23
S'/home/thiblahute/devel/pitivi/1.0-uninstalled/gst-editing-services/ges/ges-audio-test-source.h'
p415
sbag26
ag2
(g3
g4
Ntp416
Rp417
(dp418
g8
I00
sg9
g10
((lp419
tp420
Rp421
sg18
F1435592787.8137248
sg19
g10
((lp422
g403
atp423
Rp424
sg23
S'/home/thiblahute/devel/pitivi/1.0-uninstalled/gst-editing-services/ges/ges-audio-test-source.c'
p425
sbatp426
Rp427
sg18
F1443695443.7170298
sg19
g10
((lp428
tp429
Rp430
sg23
S'/home/thiblahute/devel/pitivi/1.0-uninstalled/gst-editing-services/docs/ges/md/GESAudioTestSource.markdown'
p431
sbag2
(g3
g4
Ntp432
Rp433
(dp434
g8
I00
sg9
g10
((lp435
g2
(g3
g4
Ntp436
Rp437
(dp438
g8
I00
sg9
g10
((lp439
tp440
Rp441
sg18
F1435592787.817058
sg19
g10
((lp442
g433
atp443
Rp444
sg23
S'/home/thiblahute/devel/pitivi/1.0-uninstalled/gst-editing-services/ges/ges-extractable.h'
p445
sbag26
ag2
(g3
g4
Ntp446
Rp447
(dp448
g8
I00
sg9
g10
((lp449
tp450
Rp451
sg18
F1443695443.7303631
sg19
g10
((lp452
g433
atp453
Rp454
sg23
S'/home/thiblahute/devel/pitivi/1.0-uninstalled/gst-editing-services/ges/ges-extractable.c'
p455
sbatp456
Rp457
sg18
F1443695443.7203631
sg19
g10
((lp458
tp459
Rp460
sg23
S'/home/thiblahute/devel/pitivi/1.0-uninstalled/gst-editing-services/docs/ges/md/GESExtractableInterface.markdown'
p461
sbag2
(g3
g4
Ntp462
Rp463
(dp464
g8
I00
sg9
g10
((lp465
g2
(g3
g4
Ntp466
Rp467
(dp468
g8
I00
sg9
g10
((lp469
tp470
Rp471
sg18
F1435592787.817058
sg19
g10
((lp472
g463
atp473
Rp474
sg23
S'/home/thiblahute/devel/pitivi/1.0-uninstalled/gst-editing-services/ges/ges-operation.h'
p475
sbag26
atp476
Rp477
sg18
F1443695443.7203631
sg19
g10
((lp478
tp479
Rp480
sg23
S'/home/thiblahute/devel/pitivi/1.0-uninstalled/gst-editing-services/docs/ges/md/GESOperation.markdown'
p481
sbag2
(g3
g4
Ntp482
Rp483
(dp484
g8
I00
sg9
g10
((lp485
g26
ag2
(g3
g4
Ntp486
Rp487
(dp488
g8
I00
sg9
g10
((lp489
tp490
Rp491
sg18
F1435592787.8203914
sg19
g10
((lp492
g483
atp493
Rp494
sg23
S'/home/thiblahute/devel/pitivi/1.0-uninstalled/gst-editing-services/ges/ges-transition.h'
p495
sbatp496
Rp497
sg18
F1443695443.7236965
sg19
g10
((lp498
tp499
Rp500
sg23
S'/home/thiblahute/devel/pitivi/1.0-uninstalled/gst-editing-services/docs/ges/md/GESTransition.markdown'
p501
sbag2
(g3
g4
Ntp502
Rp503
(dp504
g8
I00
sg9
g10
((lp505
g2
(g3
g4
Ntp506
Rp507
(dp508
g8
I00
sg9
g10
((lp509
tp510
Rp511
sg18
F1435592787.817058
sg19
g10
((lp512
g503
atp513
Rp514
sg23
S'/home/thiblahute/devel/pitivi/1.0-uninstalled/gst-editing-services/ges/ges-layer.h'
p515
sbag26
ag2
(g3
g4
Ntp516
Rp517
(dp518
g8
I00
sg9
g10
((lp519
tp520
Rp521
sg18
F1443618814.3073583
sg19
g10
((lp522
g503
atp523
Rp524
sg23
S'/home/thiblahute/devel/pitivi/1.0-uninstalled/gst-editing-services/ges/ges-layer.c'
p525
sbatp526
Rp527
sg18
F1443695443.7203631
sg19
g10
((lp528
tp529
Rp530
sg23
S'/home/thiblahute/devel/pitivi/1.0-uninstalled/gst-editing-services/docs/ges/md/GESLayer.markdown'
p531
sbag2
(g3
g4
Ntp532
Rp533
(dp534
g8
I00
sg9
g10
((lp535
g2
(g3
g4
Ntp536
Rp537
(dp538
g8
I00
sg9
g10
((lp539
tp540
Rp541
sg18
F1443618814.314025
sg19
g10
((lp542
g533
atp543
Rp544
sg23
S'/home/thiblahute/devel/pitivi/1.0-uninstalled/gst-editing-services/ges/ges-utils.c'
p545
sbag2
(g3
g4
Ntp546
Rp547
(dp548
g8
I00
sg9
g10
((lp549
tp550
Rp551
sg18
F1443691611.0235643
sg19
g10
((lp552
g533
atp553
Rp554
sg23
S'/home/thiblahute/devel/pitivi/1.0-uninstalled/gst-editing-services/ges/ges-timeline.c'
p555
sbag2
(g3
g4
Ntp556
Rp557
(dp558
g8
I00
sg9
g10
((lp559
tp560
Rp561
sg18
F1435592787.8203914
sg19
g10
((lp562
g533
atp563
Rp564
sg23
S'/home/thiblahute/devel/pitivi/1.0-uninstalled/gst-editing-services/ges/ges-utils.h'
p565
sbag26
ag2
(g3
g4
Ntp566
Rp567
(dp568
g8
I00
sg9
g10
((lp569
tp570
Rp571
sg18
F1442339446.2803764
sg19
g10
((lp572
g533
atp573
Rp574
sg23
S'/home/thiblahute/devel/pitivi/1.0-uninstalled/gst-editing-services/ges/ges-timeline.h'
p575
sbatp576
Rp577
sg18
F1443695443.7236965
sg19
g10
((lp578
tp579
Rp580
sg23
S'/home/thiblahute/devel/pitivi/1.0-uninstalled/gst-editing-services/docs/ges/md/GESTimeline.markdown'
p581
sbag2
(g3
g4
Ntp582
Rp583
(dp584
g8
I00
sg9
g10
((lp585
g26
ag2
(g3
g4
Ntp586
Rp587
(dp588
g8
I00
sg9
g10
((lp589
tp590
Rp591
sg18
F1435592787.817058
sg19
g10
((lp592
g583
atp593
Rp594
sg23
S'/home/thiblahute/devel/pitivi/1.0-uninstalled/gst-editing-services/ges/ges-overlay-clip.h'
p595
sbatp596
Rp597
sg18
F1443695443.7203631
sg19
g10
((lp598
tp599
Rp600
sg23
S'/home/thiblahute/devel/pitivi/1.0-uninstalled/gst-editing-services/docs/ges/md/GESOverlayClip.markdown'
p601
sbag2
(g3
g4
Ntp602
Rp603
(dp604
g8
I00
sg9
g10
((lp605
g2
(g3
g4
Ntp606
Rp607
(dp608
g8
I00
sg9
g10
((lp609
tp610
Rp611
sg18
F1435592787.8203914
sg19
g10
((lp612
g603
atp613
Rp614
sg23
S'/home/thiblahute/devel/pitivi/1.0-uninstalled/gst-editing-services/ges/ges-text-overlay.h'
p615
sbag26
ag2
(g3
g4
Ntp616
Rp617
(dp618
g8
I00
sg9
g10
((lp619
tp620
Rp621
sg18
F1435592787.8203914
sg19
g10
((lp622
g603
atp623
Rp624
sg23
S'/home/thiblahute/devel/pitivi/1.0-uninstalled/gst-editing-services/ges/ges-text-overlay.c'
p625
sbatp626
Rp627
sg18
F1443695443.7236965
sg19
g10
((lp628
tp629
Rp630
sg23
S'/home/thiblahute/devel/pitivi/1.0-uninstalled/gst-editing-services/docs/ges/md/GESTextOverlay.markdown'
p631
sbag2
(g3
g4
Ntp632
Rp633
(dp634
g8
I00
sg9
g10
((lp635
g2
(g3
g4
Ntp636
Rp637
(dp638
g8
I00
sg9
g10
((lp639
tp640
Rp641
sg18
F1443618814.3073583
sg19
g10
((lp642
g633
atp643
Rp644
sg23
S'/home/thiblahute/devel/pitivi/1.0-uninstalled/gst-editing-services/ges/ges-clip.c'
p645
sbag26
ag2
(g3
g4
Ntp646
Rp647
(dp648
g8
I00
sg9
g10
((lp649
tp650
Rp651
sg18
F1435592787.817058
sg19
g10
((lp652
g633
atp653
Rp654
sg23
S'/home/thiblahute/devel/pitivi/1.0-uninstalled/gst-editing-services/ges/ges-clip.h'
p655
sbatp656
Rp657
sg18
F1443695443.7203631
sg19
g10
((lp658
tp659
Rp660
sg23
S'/home/thiblahute/devel/pitivi/1.0-uninstalled/gst-editing-services/docs/ges/md/GESClip.markdown'
p661
sbag2
(g3
g4
Ntp662
Rp663
(dp664
g8
I00
sg9
g10
((lp665
g2
(g3
g4
Ntp666
Rp667
(dp668
g8
I00
sg9
g10
((lp669
tp670
Rp671
sg18
F1443618814.3106916
sg19
g10
((lp672
g663
atp673
Rp674
sg23
S'/home/thiblahute/devel/pitivi/1.0-uninstalled/gst-editing-services/ges/ges-timeline-element.h'
p675
sbag26
ag2
(g3
g4
Ntp676
Rp677
(dp678
g8
I00
sg9
g10
((lp679
tp680
Rp681
sg18
F1443695443.7303631
sg19
g10
((lp682
g663
atp683
Rp684
sg23
S'/home/thiblahute/devel/pitivi/1.0-uninstalled/gst-editing-services/ges/ges-timeline-element.c'
p685
sbatp686
Rp687
sg18
F1443695443.7236965
sg19
g10
((lp688
tp689
Rp690
sg23
S'/home/thiblahute/devel/pitivi/1.0-uninstalled/gst-editing-services/docs/ges/md/GESTimelineElement.markdown'
p691
sbag2
(g3
g4
Ntp692
Rp693
(dp694
g8
I00
sg9
g10
((lp695
g2
(g3
g4
Ntp696
Rp697
(dp698
g8
I00
sg9
g10
((lp699
tp700
Rp701
sg18
F1435592787.8203914
sg19
g10
((lp702
g693
atp703
Rp704
sg23
S'/home/thiblahute/devel/pitivi/1.0-uninstalled/gst-editing-services/ges/ges-video-transition.h'
p705
sbag26
ag2
(g3
g4
Ntp706
Rp707
(dp708
g8
I00
sg9
g10
((lp709
tp710
Rp711
sg18
F1443618814.314025
sg19
g10
((lp712
g693
atp713
Rp714
sg23
S'/home/thiblahute/devel/pitivi/1.0-uninstalled/gst-editing-services/ges/ges-video-transition.c'
p715
sbatp716
Rp717
sg18
F1443695443.7236965
sg19
g10
((lp718
tp719
Rp720
sg23
S'/home/thiblahute/devel/pitivi/1.0-uninstalled/gst-editing-services/docs/ges/md/GESVideoTransition.markdown'
p721
sbag2
(g3
g4
Ntp722
Rp723
(dp724
g8
I00
sg9
g10
((lp725
g2
(g3
g4
Ntp726
Rp727
(dp728
g8
I00
sg9
g10
((lp729
tp730
Rp731
sg18
F1435592787.817058
sg19
g10
((lp732
g723
atp733
Rp734
sg23
S'/home/thiblahute/devel/pitivi/1.0-uninstalled/gst-editing-services/ges/ges-container.h'
p735
sbag26
ag2
(g3
g4
Ntp736
Rp737
(dp738
g8
I00
sg9
g10
((lp739
tp740
Rp741
sg18
F1443618814.3073583
sg19
g10
((lp742
g723
atp743
Rp744
sg23
S'/home/thiblahute/devel/pitivi/1.0-uninstalled/gst-editing-services/ges/ges-container.c'
p745
sbatp746
Rp747
sg18
F1443695443.7203631
sg19
g10
((lp748
tp749
Rp750
sg23
S'/home/thiblahute/devel/pitivi/1.0-uninstalled/gst-editing-services/docs/ges/md/GESContainer.markdown'
p751
sbag2
(g3
g4
Ntp752
Rp753
(dp754
g8
I00
sg9
g10
((lp755
g2
(g3
g4
Ntp756
Rp757
(dp758
g8
I00
sg9
g10
((lp759
tp760
Rp761
sg18
F1435592787.8203914
sg19
g10
((lp762
g753
atp763
Rp764
sg23
S'/home/thiblahute/devel/pitivi/1.0-uninstalled/gst-editing-services/ges/ges-video-test-source.h'
p765
sbag26
ag2
(g3
g4
Ntp766
Rp767
(dp768
g8
I00
sg9
g10
((lp769
tp770
Rp771
sg18
F1435592787.8203914
sg19
g10
((lp772
g753
atp773
Rp774
sg23
S'/home/thiblahute/devel/pitivi/1.0-uninstalled/gst-editing-services/ges/ges-video-test-source.c'
p775
sbatp776
Rp777
sg18
F1443695443.7236965
sg19
g10
((lp778
tp779
Rp780
sg23
S'/home/thiblahute/devel/pitivi/1.0-uninstalled/gst-editing-services/docs/ges/md/GESVideoTestSource.markdown'
p781
sbag2
(g3
g4
Ntp782
Rp783
(dp784
g8
I00
sg9
g10
((lp785
g2
(g3
g4
Ntp786
Rp787
(dp788
g8
I00
sg9
g10
((lp789
tp790
Rp791
sg18
F1435592787.817058
sg19
g10
((lp792
g783
atp793
Rp794
sg23
S'/home/thiblahute/devel/pitivi/1.0-uninstalled/gst-editing-services/ges/ges-audio-transition.c'
p795
sbag26
ag2
(g3
g4
Ntp796
Rp797
(dp798
g8
I00
sg9
g10
((lp799
tp800
Rp801
sg18
F1435592787.817058
sg19
g10
((lp802
g783
atp803
Rp804
sg23
S'/home/thiblahute/devel/pitivi/1.0-uninstalled/gst-editing-services/ges/ges-audio-transition.h'
p805
sbatp806
Rp807
sg18
F1443695443.7170298
sg19
g10
((lp808
tp809
Rp810
sg23
S'/home/thiblahute/devel/pitivi/1.0-uninstalled/gst-editing-services/docs/ges/md/GESAudioTransition.markdown'
p811
sbag2
(g3
g4
Ntp812
Rp813
(dp814
g8
I00
sg9
g10
((lp815
g2
(g3
g4
Ntp816
Rp817
(dp818
g8
I00
sg9
g10
((lp819
tp820
Rp821
sg18
F1435592787.817058
sg19
g10
((lp822
g813
atp823
Rp824
sg23
S'/home/thiblahute/devel/pitivi/1.0-uninstalled/gst-editing-services/ges/ges-effect.c'
p825
sbag26
ag2
(g3
g4
Ntp826
Rp827
(dp828
g8
I00
sg9
g10
((lp829
tp830
Rp831
sg18
F1435592787.817058
sg19
g10
((lp832
g813
atp833
Rp834
sg23
S'/home/thiblahute/devel/pitivi/1.0-uninstalled/gst-editing-services/ges/ges-effect.h'
p835
sbatp836
Rp837
sg18
F1443695443.7203631
sg19
g10
((lp838
tp839
Rp840
sg23
S'/home/thiblahute/devel/pitivi/1.0-uninstalled/gst-editing-services/docs/ges/md/GESEffect.markdown'
p841
sbag6
ag2
(g3
g4
Ntp842
Rp843
(dp844
g8
I00
sg9
g10
((lp845
g2
(g3
g4
Ntp846
Rp847
(dp848
g8
I00
sg9
g10
((lp849
tp850
Rp851
sg18
F1435592787.8203914
sg19
g10
((lp852
g843
atp853
Rp854
sg23
S'/home/thiblahute/devel/pitivi/1.0-uninstalled/gst-editing-services/ges/ges-test-clip.h'
p855
sbag26
ag2
(g3
g4
Ntp856
Rp857
(dp858
g8
I00
sg9
g10
((lp859
tp860
Rp861
sg18
F1435592787.8203914
sg19
g10
((lp862
g843
atp863
Rp864
sg23
S'/home/thiblahute/devel/pitivi/1.0-uninstalled/gst-editing-services/ges/ges-test-clip.c'
p865
sbatp866
Rp867
sg18
F1443695443.7236965
sg19
g10
((lp868
tp869
Rp870
sg23
S'/home/thiblahute/devel/pitivi/1.0-uninstalled/gst-editing-services/docs/ges/md/GESTestClip.markdown'
p871
sbag2
(g3
g4
Ntp872
Rp873
(dp874
g8
I00
sg9
g10
((lp875
g2
(g3
g4
Ntp876
Rp877
(dp878
g8
I00
sg9
g10
((lp879
tp880
Rp881
sg18
F1435592787.817058
sg19
g10
((lp882
g873
atp883
Rp884
sg23
S'/home/thiblahute/devel/pitivi/1.0-uninstalled/gst-editing-services/ges/ges-image-source.h'
p885
sbag26
atp886
Rp887
sg18
F1443695443.7203631
sg19
g10
((lp888
tp889
Rp890
sg23
S'/home/thiblahute/devel/pitivi/1.0-uninstalled/gst-editing-services/docs/ges/md/GESImageSource.markdown'
p891
sbag2
(g3
g4
Ntp892
Rp893
(dp894
g8
I00
sg9
g10
((lp895
g2
(g3
g4
Ntp896
Rp897
(dp898
g8
I00
sg9
g10
((lp899
tp900
Rp901
sg18
F1435592787.8203914
sg19
g10
((lp902
g893
atp903
Rp904
sg23
S'/home/thiblahute/devel/pitivi/1.0-uninstalled/gst-editing-services/ges/ges-source-clip.h'
p905
sbag26
atp906
Rp907
sg18
F1443695443.7203631
sg19
g10
((lp908
tp909
Rp910
sg23
S'/home/thiblahute/devel/pitivi/1.0-uninstalled/gst-editing-services/docs/ges/md/GESSourceClip.markdown'
p911
sbag2
(g3
g4
Ntp912
Rp913
(dp914
g8
I00
sg9
g10
((lp915
g26
ag2
(g3
g4
Ntp916
Rp917
(dp918
g8
I00
sg9
g10
((lp919
tp920
Rp921
sg18
F1443695443.7303631
sg19
g10
((lp922
g913
atp923
Rp924
sg23
S'/home/thiblahute/devel/pitivi/1.0-uninstalled/gst-editing-services/ges/ges-multi-file-source.c'
p925
sbag2
(g3
g4
Ntp926
Rp927
(dp928
g8
I00
sg9
g10
((lp929
tp930
Rp931
sg18
F1435592787.817058
sg19
g10
((lp932
g913
atp933
Rp934
sg23
S'/home/thiblahute/devel/pitivi/1.0-uninstalled/gst-editing-services/ges/ges-multi-file-source.h'
p935
sbatp936
Rp937
sg18
F1443695443.7203631
sg19
g10
((lp938
tp939
Rp940
sg23
S'/home/thiblahute/devel/pitivi/1.0-uninstalled/gst-editing-services/docs/ges/md/GESMultiFileSource.markdown'
p941
sbag2
(g3
g4
Ntp942
Rp943
(dp944
g8
I00
sg9
g10
((lp945
g2
(g3
g4
Ntp946
Rp947
(dp948
g8
I00
sg9
g10
((lp949
tp950
Rp951
sg18
F1437036896.5592241
sg19
g10
((lp952
g943
atp953
Rp954
sg23
S'/home/thiblahute/devel/pitivi/1.0-uninstalled/gst-editing-services/ges/ges-text-overlay-clip.c'
p955
sbag26
ag2
(g3
g4
Ntp956
Rp957
(dp958
g8
I00
sg9
g10
((lp959
tp960
Rp961
sg18
F1435592787.8203914
sg19
g10
((lp962
g943
atp963
Rp964
sg23
S'/home/thiblahute/devel/pitivi/1.0-uninstalled/gst-editing-services/ges/ges-text-overlay-clip.h'
p965
sbatp966
Rp967
sg18
F1443695443.7236965
sg19
g10
((lp968
tp969
Rp970
sg23
S'/home/thiblahute/devel/pitivi/1.0-uninstalled/gst-editing-services/docs/ges/md/GESTextOverlayClip.markdown'
p971
sbag2
(g3
g4
Ntp972
Rp973
(dp974
g8
I00
sg9
g10
((lp975
g2
(g3
g4
Ntp976
Rp977
(dp978
g8
I00
sg9
g10
((lp979
tp980
Rp981
sg18
F1443634236.9369633
sg19
g10
((lp982
g973
atp983
Rp984
sg23
S'/home/thiblahute/devel/pitivi/1.0-uninstalled/gst-editing-services/ges/ges-effect-clip.c'
p985
sbag26
ag2
(g3
g4
Ntp986
Rp987
(dp988
g8
I00
sg9
g10
((lp989
tp990
Rp991
sg18
F1435592787.817058
sg19
g10
((lp992
g973
atp993
Rp994
sg23
S'/home/thiblahute/devel/pitivi/1.0-uninstalled/gst-editing-services/ges/ges-effect-clip.h'
p995
sbatp996
Rp997
sg18
F1443695443.7203631
sg19
g10
((lp998
tp999
Rp1000
sg23
S'/home/thiblahute/devel/pitivi/1.0-uninstalled/gst-editing-services/docs/ges/md/GESEffectClip.markdown'
p1001
sbag2
(g3
g4
Ntp1002
Rp1003
(dp1004
g8
I00
sg9
g10
((lp1005
g2
(g3
g4
Ntp1006
Rp1007
(dp1008
g8
I00
sg9
g10
((lp1009
tp1010
Rp1011
sg18
F1435592787.8203914
sg19
g10
((lp1012
g1003
atp1013
Rp1014
sg23
S'/home/thiblahute/devel/pitivi/1.0-uninstalled/gst-editing-services/ges/ges-transition-clip.h'
p1015
sbag26
ag2
(g3
g4
Ntp1016
Rp1017
(dp1018
g8
I00
sg9
g10
((lp1019
tp1020
Rp1021
sg18
F1435592787.8203914
sg19
g10
((lp1022
g1003
atp1023
Rp1024
sg23
S'/home/thiblahute/devel/pitivi/1.0-uninstalled/gst-editing-services/ges/ges-transition-clip.c'
p1025
sbatp1026
Rp1027
sg18
F1443695443.7236965
sg19
g10
((lp1028
tp1029
Rp1030
sg23
S'/home/thiblahute/devel/pitivi/1.0-uninstalled/gst-editing-services/docs/ges/md/GESTransitionClip.markdown'
p1031
sbag2
(g3
g4
Ntp1032
Rp1033
(dp1034
g8
I00
sg9
g10
((lp1035
g26
ag2
(g3
g4
Ntp1036
Rp1037
(dp1038
g8
I00
sg9
g10
((lp1039
tp1040
Rp1041
sg18
F1435592787.817058
sg19
g10
((lp1042
g1033
atp1043
Rp1044
sg23
S'/home/thiblahute/devel/pitivi/1.0-uninstalled/gst-editing-services/ges/ges-base-effect-clip.h'
p1045
sbatp1046
Rp1047
sg18
F1443695443.7170298
sg19
g10
((lp1048
tp1049
Rp1050
sg23
S'/home/thiblahute/devel/pitivi/1.0-uninstalled/gst-editing-services/docs/ges/md/GESBaseEffectClip.markdown'
p1051
sbatp1052
Rp1053
sg23
S'/home/thiblahute/devel/pitivi/1.0-uninstalled/gst-editing-services/ges/ges-types.h'
p1054
sbag2
(g3
g4
Ntp1055
Rp1056
(dp1057
g8
I00
sg9
g10
((lp1058
tp1059
Rp1060
sg18
F1435592787.8203914
sg19
g10
((lp1061
g6
atp1062
Rp1063
sg23
S'/home/thiblahute/devel/pitivi/1.0-uninstalled/gst-editing-services/ges/ges-title-clip.c'
p1064
sbatp1065
Rp1066
sg18
F1443695443.7236965
sg19
g10
((lp1067
tp1068
Rp1069
sg23
g1
sbsg891
g873
sg691
g663
sg291
g273
sg331
g313
sg971
g943
sS'/home/thiblahute/devel/pitivi/1.0-uninstalled/gst-editing-services/docs/ges/md/GESAsset.markdown'
p1070
g2
(g3
g4
Ntp1071
Rp1072
(dp1073
g8
I00
sg9
g10
((lp1074
g2
(g3
g4
Ntp1075
Rp1076
(dp1077
g8
I00
sg9
g10
((lp1078
tp1079
Rp1080
sg18
F1443618814.304025
sg19
g10
((lp1081
g1072
atp1082
Rp1083
sg23
S'/home/thiblahute/devel/pitivi/1.0-uninstalled/gst-editing-services/ges/ges-asset.c'
p1084
sbag2
(g3
g4
Ntp1085
Rp1086
(dp1087
g8
I00
sg9
g10
((lp1088
tp1089
Rp1090
sg18
F1435592787.8137248
sg19
g10
((lp1091
g1072
atp1092
Rp1093
sg23
S'/home/thiblahute/devel/pitivi/1.0-uninstalled/gst-editing-services/ges/ges-asset.h'
p1094
sbatp1095
Rp1096
sg18
F1443695443.7170298
sg19
g10
((lp1097
tp1098
Rp1099
sg23
g1070
sbsS'/home/thiblahute/devel/pitivi/1.0-uninstalled/gst-editing-services/docs/ges/md/index.markdown'
p1100
g2
(g3
g4
Ntp1101
Rp1102
(dp1103
g8
I00
sg9
g10
((lp1104
tp1105
Rp1106
sg18
F1443695443.7270298
sg19
g10
((lp1107
tp1108
Rp1109
sg23
g1100
sbsg601
g583
sS'/home/thiblahute/devel/pitivi/1.0-uninstalled/gst-editing-services/docs/ges/md/Timeline_objects.markdown'
p1110
g2
(g3
g4
Ntp1111
Rp1112
(dp1113
g8
I00
sg9
g10
((lp1114
tp1115
Rp1116
sg18
F1443695443.7270298
sg19
g10
((lp1117
tp1118
Rp1119
sg23
g1110
sbsS'/home/thiblahute/devel/pitivi/1.0-uninstalled/gst-editing-services/docs/ges/md/Assets.markdown'
p1120
g2
(g3
g4
Ntp1121
Rp1122
(dp1123
g8
I00
sg9
g10
((lp1124
tp1125
Rp1126
sg18
F1443695443.7170298
sg19
g10
((lp1127
tp1128
Rp1129
sg23
g1120
sbsg121
g103
sS'/home/thiblahute/devel/pitivi/1.0-uninstalled/gst-editing-services/docs/ges/md/GES_GErrors.markdown'
p1130
g2
(g3
g4
Ntp1131
Rp1132
(dp1133
g8
I00
sg9
g10
((lp1134
g2
(g3
g4
Ntp1135
Rp1136
(dp1137
g8
I00
sg9
g10
((lp1138
tp1139
Rp1140
sg18
F1443695443.7303631
sg19
g10
((lp1141
g1132
atp1142
Rp1143
sg23
S'/home/thiblahute/devel/pitivi/1.0-uninstalled/gst-editing-services/ges/ges-gerror.h'
p1144
sbatp1145
Rp1146
sg18
F1443695443.7270298
sg19
g10
((lp1147
tp1148
Rp1149
sg23
g1130
sbsS'/home/thiblahute/devel/pitivi/1.0-uninstalled/gst-editing-services/docs/ges/md/Serialization_Classes.markdown'
p1150
g2
(g3
g4
Ntp1151
Rp1152
(dp1153
g8
I00
sg9
g10
((lp1154
tp1155
Rp1156
sg18
F1443695443.7270298
sg19
g10
((lp1157
tp1158
Rp1159
sg23
g1150
sbsg631
g603
sg751
g723
sS'/home/thiblahute/devel/pitivi/1.0-uninstalled/gst-editing-services/docs/ges/md/GESBaseXmlFormatter.markdown'
p1160
g2
(g3
g4
Ntp1161
Rp1162
(dp1163
g8
I00
sg9
g10
((lp1164
g2
(g3
g4
Ntp1165
Rp1166
(dp1167
g8
I00
sg9
g10
((lp1168
tp1169
Rp1170
sg18
F1435592787.817058
sg19
g10
((lp1171
g1162
atp1172
Rp1173
sg23
S'/home/thiblahute/devel/pitivi/1.0-uninstalled/gst-editing-services/ges/ges-base-xml-formatter.h'
p1174
sbatp1175
Rp1176
sg18
F1443695443.7203631
sg19
g10
((lp1177
tp1178
Rp1179
sg23
g1160
sbsg721
g693
sg1051
g1033
sg581
g533
sS'/home/thiblahute/devel/pitivi/1.0-uninstalled/gst-editing-services/docs/ges/md/GESGroup.markdown'
p1180
g2
(g3
g4
Ntp1181
Rp1182
(dp1183
g8
I00
sg9
g10
((lp1184
g2
(g3
g4
Ntp1185
Rp1186
(dp1187
g8
I00
sg9
g10
((lp1188
tp1189
Rp1190
sg18
F1443618814.3073583
sg19
g10
((lp1191
g1182
atp1192
Rp1193
sg23
S'/home/thiblahute/devel/pitivi/1.0-uninstalled/gst-editing-services/ges/ges-group.h'
p1194
sbag2
(g3
g4
Ntp1195
Rp1196
(dp1197
g8
I00
sg9
g10
((lp1198
tp1199
Rp1200
sg18
F1443618814.3073583
sg19
g10
((lp1201
g1182
atp1202
Rp1203
sg23
S'/home/thiblahute/devel/pitivi/1.0-uninstalled/gst-editing-services/ges/ges-group.c'
p1204
sbatp1205
Rp1206
sg18
F1443695443.7203631
sg19
g10
((lp1207
tp1208
Rp1209
sg23
g1180
sbsg361
g333
sS'/home/thiblahute/devel/pitivi/1.0-uninstalled/gst-editing-services/docs/ges/md/Base_Classes.markdown'
p1210
g2
(g3
g4
Ntp1211
Rp1212
(dp1213
g8
I00
sg9
g10
((lp1214
tp1215
Rp1216
sg18
F1443695443.7170298
sg19
g10
((lp1217
tp1218
Rp1219
sg23
g1210
sbsS'/home/thiblahute/devel/pitivi/1.0-uninstalled/gst-editing-services/docs/ges/md/ges-launch.markdown'
p1220
g2
(g3
g4
Ntp1221
Rp1222
(dp1223
g8
I00
sg9
g10
((lp1224
tp1225
Rp1226
sg18
F1443600708.2734005
sg19
g10
((lp1227
tp1228
Rp1229
sg23
g1220
sbsg231
g203
sS'/home/thiblahute/devel/pitivi/1.0-uninstalled/gst-editing-services/docs/ges/md/architecture.markdown'
p1230
g2
(g3
g4
Ntp1231
Rp1232
(dp1233
g8
I00
sg9
g10
((lp1234
tp1235
Rp1236
sg18
F1443695443.7270298
sg19
g10
((lp1237
tp1238
Rp1239
sg23
g1230
sbsS'/home/thiblahute/devel/pitivi/1.0-uninstalled/gst-editing-services/docs/ges/md/GESAudioTrack.markdown'
p1240
g2
(g3
g4
Ntp1241
Rp1242
(dp1243
g8
I00
sg9
g10
((lp1244
g2
(g3
g4
Ntp1245
Rp1246
(dp1247
g8
I00
sg9
g10
((lp1248
tp1249
Rp1250
sg18
F1435592787.8137248
sg19
g10
((lp1251
g1242
atp1252
Rp1253
sg23
S'/home/thiblahute/devel/pitivi/1.0-uninstalled/gst-editing-services/ges/ges-audio-track.h'
p1254
sbag2
(g3
g4
Ntp1255
Rp1256
(dp1257
g8
I00
sg9
g10
((lp1258
tp1259
Rp1260
sg18
F1443695443.7270298
sg19
g10
((lp1261
g1242
atp1262
Rp1263
sg23
S'/home/thiblahute/devel/pitivi/1.0-uninstalled/gst-editing-services/ges/ges-audio-track.c'
p1264
sbatp1265
Rp1266
sg18
F1443695443.7170298
sg19
g10
((lp1267
tp1268
Rp1269
sg23
g1240
sbsg401
g383
sS'/home/thiblahute/devel/pitivi/1.0-uninstalled/gst-editing-services/docs/ges/md/Tracks.markdown'
p1270
g2
(g3
g4
Ntp1271
Rp1272
(dp1273
g8
I00
sg9
g10
((lp1274
tp1275
Rp1276
sg18
F1443695443.7270298
sg19
g10
((lp1277
tp1278
Rp1279
sg23
g1270
sbsS'/home/thiblahute/devel/pitivi/1.0-uninstalled/gst-editing-services/docs/ges/md/GES_Enums.markdown'
p1280
g2
(g3
g4
Ntp1281
Rp1282
(dp1283
g8
I00
sg9
g10
((lp1284
g2
(g3
g4
Ntp1285
Rp1286
(dp1287
g8
I00
sg9
g10
((lp1288
tp1289
Rp1290
sg18
F1443615114.9172308
sg19
g10
((lp1291
g1282
atp1292
Rp1293
sg23
S'/home/thiblahute/devel/pitivi/1.0-uninstalled/gst-editing-services/ges/ges-enums.h'
p1294
sbatp1295
Rp1296
sg18
F1443695443.7270298
sg19
g10
((lp1297
tp1298
Rp1299
sg23
g1280
sbsg101
g73
sS'/home/thiblahute/devel/pitivi/1.0-uninstalled/gst-editing-services/docs/ges/md/GESXmlFormatter.markdown'
p1300
g2
(g3
g4
Ntp1301
Rp1302
(dp1303
g8
I00
sg9
g10
((lp1304
tp1305
Rp1306
sg18
F1443695443.7270298
sg19
g10
((lp1307
tp1308
Rp1309
sg23
g1300
sbsg71
g33
sS'/home/thiblahute/devel/pitivi/1.0-uninstalled/gst-editing-services/docs/ges/md/Track_objects.markdown'
p1310
g2
(g3
g4
Ntp1311
Rp1312
(dp1313
g8
I00
sg9
g10
((lp1314
tp1315
Rp1316
sg18
F1443695443.7270298
sg19
g10
((lp1317
tp1318
Rp1319
sg23
g1310
sbsS'/home/thiblahute/devel/pitivi/1.0-uninstalled/gst-editing-services/docs/ges/md/Interfaces.markdown'
p1320
g2
(g3
g4
Ntp1321
Rp1322
(dp1323
g8
I00
sg9
g10
((lp1324
tp1325
Rp1326
sg18
F1443695443.7270298
sg19
g10
((lp1327
tp1328
Rp1329
sg23
g1320
sbsS'/home/thiblahute/devel/pitivi/1.0-uninstalled/gst-editing-services/docs/ges/md/GESProject.markdown'
p1330
g2
(g3
g4
Ntp1331
Rp1332
(dp1333
g8
I00
sg9
g10
((lp1334
g2
(g3
g4
Ntp1335
Rp1336
(dp1337
g8
I00
sg9
g10
((lp1338
tp1339
Rp1340
sg18
F1435592787.8203914
sg19
g10
((lp1341
g1332
atp1342
Rp1343
sg23
S'/home/thiblahute/devel/pitivi/1.0-uninstalled/gst-editing-services/ges/ges-project.h'
p1344
sbag2
(g3
g4
Ntp1345
Rp1346
(dp1347
g8
I00
sg9
g10
((lp1348
tp1349
Rp1350
sg18
F1443695443.7303631
sg19
g10
((lp1351
g1332
atp1352
Rp1353
sg23
S'/home/thiblahute/devel/pitivi/1.0-uninstalled/gst-editing-services/ges/ges-project.c'
p1354
sbatp1355
Rp1356
sg18
F1443695443.7203631
sg19
g10
((lp1357
tp1358
Rp1359
sg23
g1330
sbsS'/home/thiblahute/devel/pitivi/1.0-uninstalled/gst-editing-services/docs/ges/md/GESMetaContainer.markdown'
p1360
g2
(g3
g4
Ntp1361
Rp1362
(dp1363
g8
I00
sg9
g10
((lp1364
g2
(g3
g4
Ntp1365
Rp1366
(dp1367
g8
I00
sg9
g10
((lp1368
tp1369
Rp1370
sg18
F1443618814.3073583
sg19
g10
((lp1371
g1362
atp1372
Rp1373
sg23
S'/home/thiblahute/devel/pitivi/1.0-uninstalled/gst-editing-services/ges/ges-meta-container.h'
p1374
sbag2
(g3
g4
Ntp1375
Rp1376
(dp1377
g8
I00
sg9
g10
((lp1378
tp1379
Rp1380
sg18
F1442339446.2703764
sg19
g10
((lp1381
g1362
atp1382
Rp1383
sg23
S'/home/thiblahute/devel/pitivi/1.0-uninstalled/gst-editing-services/ges/ges-meta-container.c'
p1384
sbatp1385
Rp1386
sg18
F1443695443.7203631
sg19
g10
((lp1387
tp1388
Rp1389
sg23
g1360
sbsg531
g503
sS'/home/thiblahute/devel/pitivi/1.0-uninstalled/gst-editing-services/docs/ges/md/GESClipAsset.markdown'
p1390
g2
(g3
g4
Ntp1391
Rp1392
(dp1393
g8
I00
sg9
g10
((lp1394
g2
(g3
g4
Ntp1395
Rp1396
(dp1397
g8
I00
sg9
g10
((lp1398
tp1399
Rp1400
sg18
F1435592787.817058
sg19
g10
((lp1401
g1392
atp1402
Rp1403
sg23
S'/home/thiblahute/devel/pitivi/1.0-uninstalled/gst-editing-services/ges/ges-clip-asset.h'
p1404
sbag2
(g3
g4
Ntp1405
Rp1406
(dp1407
g8
I00
sg9
g10
((lp1408
tp1409
Rp1410
sg18
F1435592787.817058
sg19
g10
((lp1411
g1392
atp1412
Rp1413
sg23
S'/home/thiblahute/devel/pitivi/1.0-uninstalled/gst-editing-services/ges/ges-clip-asset.c'
p1414
sbatp1415
Rp1416
sg18
F1443695443.7203631
sg19
g10
((lp1417
tp1418
Rp1419
sg23
g1390
sbsg251
g233
sS'/home/thiblahute/devel/pitivi/1.0-uninstalled/gst-editing-services/docs/ges/md/Initialization.markdown'
p1420
g2
(g3
g4
Ntp1421
Rp1422
(dp1423
g8
I00
sg9
g10
((lp1424
g2
(g3
g4
Ntp1425
Rp1426
(dp1427
g8
I00
sg9
g10
((lp1428
tp1429
Rp1430
sg18
F1435592787.8237247
sg19
g10
((lp1431
g1422
atp1432
Rp1433
sg23
S'/home/thiblahute/devel/pitivi/1.0-uninstalled/gst-editing-services/ges/ges.h'
p1434
sbag2
(g3
g4
Ntp1435
Rp1436
(dp1437
g8
I00
sg9
g10
((lp1438
tp1439
Rp1440
sg18
F1443618814.314025
sg19
g10
((lp1441
g1422
atp1442
Rp1443
sg23
S'/home/thiblahute/devel/pitivi/1.0-uninstalled/gst-editing-services/ges/ges.c'
p1444
sbatp1445
Rp1446
sg18
F1443695443.7270298
sg19
g10
((lp1447
tp1448
Rp1449
sg23
g1420
sbsS'/home/thiblahute/devel/pitivi/1.0-uninstalled/gst-editing-services/docs/ges/md/tree_index.markdown'
p1450
g2
(g3
g4
Ntp1451
Rp1452
(dp1453
g8
I00
sg9
g10
((lp1454
tp1455
Rp1456
sg18
F1443695443.7270298
sg19
g10
((lp1457
tp1458
Rp1459
sg23
g1450
sbsS'/home/thiblahute/devel/pitivi/1.0-uninstalled/gst-editing-services/docs/ges/md/Convenience_classes.markdown'
p1460
g2
(g3
g4
Ntp1461
Rp1462
(dp1463
g8
I00
sg9
g10
((lp1464
tp1465
Rp1466
sg18
F1443695443.7170298
sg19
g10
((lp1467
tp1468
Rp1469
sg23
g1460
sbsg181
g123
sS'/home/thiblahute/devel/pitivi/1.0-uninstalled/gst-editing-services/docs/ges/md/GESGoals.markdown'
p1470
g2
(g3
g4
Ntp1471
Rp1472
(dp1473
g8
I00
sg9
g10
((lp1474
tp1475
Rp1476
sg18
F1443616718.9739528
sg19
g10
((lp1477
tp1478
Rp1479
sg23
g1470
sbsg311
g293
sg271
g253
sS'/home/thiblahute/devel/pitivi/1.0-uninstalled/gst-editing-services/docs/ges/md/GESUriSourceAsset.markdown'
p1480
g2
(g3
g4
Ntp1481
Rp1482
(dp1483
g8
I00
sg9
g10
((lp1484
g2
(g3
g4
Ntp1485
Rp1486
(dp1487
g8
I00
sg9
g10
((lp1488
tp1489
Rp1490
sg18
F1435592787.8203914
sg19
g10
((lp1491
g2
(g3
g4
Ntp1492
Rp1493
(dp1494
g8
I00
sg9
g10
((lp1495
g1486
ag2
(g3
g4
Ntp1496
Rp1497
(dp1498
g8
I00
sg9
g10
((lp1499
tp1500
Rp1501
sg18
F1443693606.3003
sg19
g10
((lp1502
g1493
ag1482
atp1503
Rp1504
sg23
S'/home/thiblahute/devel/pitivi/1.0-uninstalled/gst-editing-services/ges/ges-uri-asset.c'
p1505
sbatp1506
Rp1507
sg18
F1443695443.7236965
sg19
g10
((lp1508
tp1509
Rp1510
sg23
S'/home/thiblahute/devel/pitivi/1.0-uninstalled/gst-editing-services/docs/ges/md/GESUriClipAsset.markdown'
p1511
sbag1482
atp1512
Rp1513
sg23
S'/home/thiblahute/devel/pitivi/1.0-uninstalled/gst-editing-services/ges/ges-uri-asset.h'
p1514
sbag1497
atp1515
Rp1516
sg18
F1443695443.7236965
sg19
g10
((lp1517
tp1518
Rp1519
sg23
g1480
sbsg661
g633
sg841
g813
sg201
g183
sS'/home/thiblahute/devel/pitivi/1.0-uninstalled/gst-editing-services/docs/ges/md/GStreamer_Editing_Services_Overview.markdown'
p1520
g2
(g3
g4
Ntp1521
Rp1522
(dp1523
g8
I00
sg9
g10
((lp1524
tp1525
Rp1526
sg18
F1443695443.7270298
sg19
g10
((lp1527
tp1528
Rp1529
sg23
g1520
sbsg811
g783
sg911
g893
sg431
g403
sS'/home/thiblahute/devel/pitivi/1.0-uninstalled/gst-editing-services/docs/ges/md/GESVideoTrack.markdown'
p1530
g2
(g3
g4
Ntp1531
Rp1532
(dp1533
g8
I00
sg9
g10
((lp1534
g2
(g3
g4
Ntp1535
Rp1536
(dp1537
g8
I00
sg9
g10
((lp1538
tp1539
Rp1540
sg18
F1435592787.8203914
sg19
g10
((lp1541
g1532
atp1542
Rp1543
sg23
S'/home/thiblahute/devel/pitivi/1.0-uninstalled/gst-editing-services/ges/ges-video-track.h'
p1544
sbag2
(g3
g4
Ntp1545
Rp1546
(dp1547
g8
I00
sg9
g10
((lp1548
tp1549
Rp1550
sg18
F1443695443.7303631
sg19
g10
((lp1551
g1532
atp1552
Rp1553
sg23
S'/home/thiblahute/devel/pitivi/1.0-uninstalled/gst-editing-services/ges/ges-video-track.c'
p1554
sbatp1555
Rp1556
sg18
F1443695443.7236965
sg19
g10
((lp1557
tp1558
Rp1559
sg23
g1530
sbsg1031
g1003
sS'/home/thiblahute/devel/pitivi/1.0-uninstalled/gst-editing-services/docs/ges/md/GESUriClip.markdown'
p1560
g2
(g3
g4
Ntp1561
Rp1562
(dp1563
g8
I00
sg9
g10
((lp1564
g2
(g3
g4
Ntp1565
Rp1566
(dp1567
g8
I00
sg9
g10
((lp1568
tp1569
Rp1570
sg18
F1443695443.7303631
sg19
g10
((lp1571
g1562
atp1572
Rp1573
sg23
S'/home/thiblahute/devel/pitivi/1.0-uninstalled/gst-editing-services/ges/ges-uri-clip.c'
p1574
sbag2
(g3
g4
Ntp1575
Rp1576
(dp1577
g8
I00
sg9
g10
((lp1578
tp1579
Rp1580
sg18
F1435592787.8203914
sg19
g10
((lp1581
g1562
atp1582
Rp1583
sg23
S'/home/thiblahute/devel/pitivi/1.0-uninstalled/gst-editing-services/ges/ges-uri-clip.h'
p1584
sbatp1585
Rp1586
sg18
F1443695443.7236965
sg19
g10
((lp1587
tp1588
Rp1589
sg23
g1560
sbsg381
g363
sg941
g913
sS'/home/thiblahute/devel/pitivi/1.0-uninstalled/gst-editing-services/docs/ges/md/Object_Hierarchy.markdown'
p1590
g2
(g3
g4
Ntp1591
Rp1592
(dp1593
g8
I00
sg9
g10
((lp1594
tp1595
Rp1596
sg18
F1443695443.7270298
sg19
g10
((lp1597
tp1598
Rp1599
sg23
g1590
sbsg871
g843
sg1511
g1493
sg501
g483
sg781
g753
sg172
g134
sg1001
g973
sg481
g463
sg461
g433
s.